; ModuleID = 'C:/Users/Awais/singlecylce_riscv/solution1/.autopilot/db/a.o.3.bc'
target datalayout = "e-p:64:64:64-i1:8:8-i8:8:8-i16:16:16-i32:32:32-i64:64:64-f32:32:32-f64:64:64-v64:64:64-v128:128:128-a0:0:64-s0:64:64-f80:128:128-n8:16:32:64-S128"
target triple = "x86_64-w64-mingw32"

@uncond_jump_rd_V = constant [2 x i5] zeroinitializer ; [#uses=0 type=[2 x i5]*]
@uncond_jump_opcode_V = constant [2 x i7] [i7 55, i7 -17] ; [#uses=0 type=[2 x i7]*]
@uncond_jump_immed_V = constant [2 x i20] zeroinitializer ; [#uses=0 type=[2 x i20]*]
@store_rs2_V = constant [1 x i5] zeroinitializer  ; [#uses=0 type=[1 x i5]*]
@store_rs1_V = constant [1 x i5] zeroinitializer  ; [#uses=0 type=[1 x i5]*]
@store_opcode_V_0 = constant i7 35                ; [#uses=0 type=i7*]
@store_immed2_V = constant [1 x i7] zeroinitializer ; [#uses=0 type=[1 x i7]*]
@store_immed_V = constant [1 x i5] zeroinitializer ; [#uses=0 type=[1 x i5]*]
@store_funct3_V = constant [1 x i3] [i3 2]        ; [#uses=0 type=[1 x i3]*]
@singlecycle_riscv_st = internal unnamed_addr constant [18 x i8] c"singlecycle_riscv\00" ; [#uses=1 type=[18 x i8]*]
@pProgramCounter_name_1 = internal global i5 0    ; [#uses=2 type=i5*]
@pProgramCounter_name = global i4* getelementptr inbounds ([15 x i4]* @instSet_name, i64 0, i64 0) ; [#uses=0 type=i4**]
@pProgramCounter_form_1 = internal global i6 15   ; [#uses=3 type=i6*]
@pProgramCounter_form = global i8* getelementptr inbounds ([15 x i8]* @instSet_format_Sel, i64 0, i64 0) ; [#uses=0 type=i8**]
@pProgramCounter_entr_1 = internal global i7 30   ; [#uses=3 type=i7*]
@pProgramCounter_entr = global i5* getelementptr inbounds ([15 x i5]* @instSet_entryIndex_V_1, i64 0, i64 0) ; [#uses=0 type=i5**]
@load_rs1_V = constant [3 x i5] zeroinitializer   ; [#uses=0 type=[3 x i5]*]
@load_rd_V = constant [3 x i5] zeroinitializer    ; [#uses=0 type=[3 x i5]*]
@load_opcode_V_2 = constant i7 -25                ; [#uses=0 type=i7*]
@load_opcode_V_1 = constant i7 3                  ; [#uses=0 type=i7*]
@load_opcode_V_0 = constant i7 52                 ; [#uses=0 type=i7*]
@load_opcode_V = constant [3 x i7] [i7 52, i7 3, i7 -25] ; [#uses=0 type=[3 x i7]*]
@load_immediate_V = constant [3 x i12] zeroinitializer ; [#uses=0 type=[3 x i12]*]
@load_funct3_V = constant [3 x i3] [i3 0, i3 2, i3 0] ; [#uses=0 type=[3 x i3]*]
@llvm_global_ctors_1 = appending global [1 x void ()*] [void ()* @_GLOBAL__I_a] ; [#uses=0 type=[1 x void ()*]*]
@llvm_global_ctors_0 = appending global [1 x i32] [i32 65535] ; [#uses=0 type=[1 x i32]*]
@instSet_name = constant [15 x i4] [i4 0, i4 1, i4 2, i4 3, i4 4, i4 5, i4 6, i4 7, i4 -8, i4 -7, i4 -6, i4 -5, i4 -4, i4 -3, i4 -2] ; [#uses=1 type=[15 x i4]*]
@instSet_format_Sel = constant [15 x i8] c"\00\01\00\00\01\02\04\04\01\00\00\03\03\00\00" ; [#uses=1 type=[15 x i8]*]
@instSet_entryIndex_V_1 = constant [15 x i5] [i5 0, i5 0, i5 1, i5 2, i5 1, i5 0, i5 0, i5 1, i5 2, i5 3, i5 4, i5 0, i5 1, i5 5, i5 6] ; [#uses=1 type=[15 x i5]*]
@instSet_entryIndex_V = constant [15 x i3] [i3 0, i3 0, i3 1, i3 2, i3 1, i3 0, i3 0, i3 1, i3 2, i3 3, i3 -4, i3 0, i3 1, i3 -3, i3 -2] ; [#uses=1 type=[15 x i3]*]
@branch_rs2_V = constant [2 x i5] zeroinitializer ; [#uses=0 type=[2 x i5]*]
@branch_rs1_V = constant [2 x i5] zeroinitializer ; [#uses=0 type=[2 x i5]*]
@branch_opcode_V_1 = constant i7 -24              ; [#uses=0 type=i7*]
@branch_opcode_V_0 = constant i7 -24              ; [#uses=0 type=i7*]
@branch_opcode_V = constant [2 x i7] [i7 -24, i7 -24] ; [#uses=0 type=[2 x i7]*]
@branch_immed2_V = constant [2 x i7] zeroinitializer ; [#uses=0 type=[2 x i7]*]
@branch_immed_V = constant [2 x i5] zeroinitializer ; [#uses=0 type=[2 x i5]*]
@branch_funct3_V = constant [2 x i3] [i3 0, i3 1] ; [#uses=0 type=[2 x i3]*]
@arithematic_rs2_V = constant [7 x i5] zeroinitializer ; [#uses=0 type=[7 x i5]*]
@arithematic_rs1_V = constant [7 x i5] zeroinitializer ; [#uses=0 type=[7 x i5]*]
@arithematic_rd_V = constant [7 x i5] zeroinitializer ; [#uses=0 type=[7 x i5]*]
@arithematic_opcode_V = constant [7 x i7] [i7 51, i7 53, i7 54, i7 56, i7 57, i7 -23, i7 -22] ; [#uses=0 type=[7 x i7]*]
@arithematic_funt7_V = constant [7 x i7] zeroinitializer ; [#uses=0 type=[7 x i7]*]
@arithematic_funct3_V = constant [7 x i3] [i3 0, i3 0, i3 0, i3 -1, i3 -2, i3 1, i3 -3] ; [#uses=0 type=[7 x i3]*]
@GReg_V = global [31 x i32] zeroinitializer       ; [#uses=0 type=[31 x i32]*]
@DataReg_V = constant [32 x i5] zeroinitializer   ; [#uses=0 type=[32 x i5]*]
@p_str14 = private unnamed_addr constant [1 x i8] zeroinitializer, align 1 ; [#uses=12 type=[1 x i8]*]
@p_str13 = private unnamed_addr constant [6 x i8] c"ap_hs\00", align 1 ; [#uses=2 type=[6 x i8]*]

; [#uses=0]
define void @singlecycle_riscv(i32 %startingInst_V, i6 %immediate_V) {
  call void (...)* @_ssdm_op_SpecBitsMap(i32 %startingInst_V), !map !143
  call void (...)* @_ssdm_op_SpecBitsMap(i6 %immediate_V), !map !149
  call void (...)* @_ssdm_op_SpecTopModule([18 x i8]* @singlecycle_riscv_st) nounwind
  call void (...)* @_ssdm_op_SpecInterface(i6 %immediate_V, [6 x i8]* @p_str13, i32 0, i32 0, [1 x i8]* @p_str14, i32 0, i32 0, [1 x i8]* @p_str14, [1 x i8]* @p_str14, [1 x i8]* @p_str14, i32 0, i32 0, i32 0, i32 0, [1 x i8]* @p_str14, [1 x i8]* @p_str14) nounwind, !dbg !153 ; [debug line = 65:1]
  call void (...)* @_ssdm_op_SpecInterface(i32 %startingInst_V, [6 x i8]* @p_str13, i32 0, i32 0, [1 x i8]* @p_str14, i32 0, i32 0, [1 x i8]* @p_str14, [1 x i8]* @p_str14, [1 x i8]* @p_str14, i32 0, i32 0, i32 0, i32 0, [1 x i8]* @p_str14, [1 x i8]* @p_str14) nounwind, !dbg !2286 ; [debug line = 66:1]
  call void @llvm.dbg.value(metadata !{i32 %startingInst_V}, i64 0, metadata !2287), !dbg !2298 ; [debug line = 160:46@67:2] [debug variable = ssdm_int<32 + 1024 * 0, true>.V]
  call void @llvm.dbg.value(metadata !{i6 %immediate_V}, i64 0, metadata !2300), !dbg !2310 ; [debug line = 82:79@70:29] [debug variable = op.V]
  call void @llvm.dbg.value(metadata !{i6 %immediate_V}, i64 0, metadata !2312), !dbg !2315 ; [debug line = 82:79@82:99@70:29] [debug variable = op.V]
  call void @llvm.dbg.value(metadata !{i6 %immediate_V}, i64 0, metadata !2317), !dbg !2319 ; [debug line = 82:84@82:99@70:29] [debug variable = immed.V]
  br label %1, !dbg !2321                         ; [debug line = 73:13]

; <label>:1                                       ; preds = %_ifconv, %0
  %i = phi i4 [ 0, %0 ], [ %i_1, %_ifconv ]       ; [#uses=2 type=i4]
  %exitcond = icmp eq i4 %i, -1, !dbg !2321       ; [#uses=1 type=i1] [debug line = 73:13]
  %empty = call i32 (...)* @_ssdm_op_SpecLoopTripCount(i64 15, i64 15, i64 15) ; [#uses=0 type=i32]
  %i_1 = add i4 %i, 1, !dbg !2323                 ; [#uses=1 type=i4] [debug line = 73:24]
  br i1 %exitcond, label %2, label %_ifconv, !dbg !2321 ; [debug line = 73:13]

_ifconv:                                          ; preds = %1
  %pProgramCounter_name = load i5* @pProgramCounter_name_1, align 1 ; [#uses=1 type=i5]
  %pProgramCounter_form = load i6* @pProgramCounter_form_1, align 1 ; [#uses=1 type=i6]
  %pProgramCounter_entr = load i7* @pProgramCounter_entr_1, align 1 ; [#uses=1 type=i7]
  %mem_index_gep = add i5 %pProgramCounter_name, 1 ; [#uses=1 type=i5]
  %mem_index_gep2 = add i6 %pProgramCounter_form, 1 ; [#uses=1 type=i6]
  %mem_index_gep4 = add i7 %pProgramCounter_entr, 1 ; [#uses=1 type=i7]
  store i5 %mem_index_gep, i5* @pProgramCounter_name_1, align 1
  store i6 %mem_index_gep2, i6* @pProgramCounter_form_1, align 1
  store i7 %mem_index_gep4, i7* @pProgramCounter_entr_1, align 1
  call void @llvm.dbg.value(metadata !{i4 %i_1}, i64 0, metadata !2324), !dbg !2323 ; [debug line = 73:24] [debug variable = i]
  br label %1, !dbg !2323                         ; [debug line = 73:24]

; <label>:2                                       ; preds = %1
  %pProgramCounter_form_2 = load i6* @pProgramCounter_form_1, align 1 ; [#uses=3 type=i6]
  %adjSize11_cast = zext i6 %pProgramCounter_form_2 to i7 ; [#uses=1 type=i7]
  %pProgramCounter_entr_2 = load i7* @pProgramCounter_entr_1, align 1 ; [#uses=3 type=i7]
  %adjSize14_cast = zext i7 %pProgramCounter_entr_2 to i8 ; [#uses=1 type=i8]
  %addrCmp = icmp ugt i6 %pProgramCounter_form_2, 14 ; [#uses=1 type=i1]
  %addrCmp1 = icmp ult i6 %pProgramCounter_form_2, 30 ; [#uses=1 type=i1]
  %gepindex = add i7 -15, %adjSize11_cast, !dbg !2325 ; [#uses=1 type=i7] [debug line = 127:2@11:23@57:2@118:2]
  %gepindex_cast = sext i7 %gepindex to i9, !dbg !2325 ; [#uses=1 type=i9] [debug line = 127:2@11:23@57:2@118:2]
  %addrCmp2 = icmp ugt i7 %pProgramCounter_entr_2, 29 ; [#uses=1 type=i1]
  %addrCmp3 = icmp ult i7 %pProgramCounter_entr_2, 45 ; [#uses=1 type=i1]
  %gepindex1 = add i8 -30, %adjSize14_cast        ; [#uses=1 type=i8]
  %gepindex2 = select i1 %addrCmp2, i8 %gepindex1, i8 14 ; [#uses=1 type=i8]
  %gepindex3 = select i1 %addrCmp3, i8 %gepindex2, i8 14 ; [#uses=1 type=i8]
  %gepindex220_cast = sext i8 %gepindex3 to i64   ; [#uses=1 type=i64]
  %instSet_entryIndex_V = getelementptr [15 x i3]* @instSet_entryIndex_V, i64 0, i64 %gepindex220_cast ; [#uses=1 type=i3*]
  %instSet_entryIndex_V_2 = load i3* %instSet_entryIndex_V, align 1 ; [#uses=1 type=i3]
  call void @llvm.dbg.value(metadata !{i3 %instSet_entryIndex_V_2}, i64 0, metadata !5939), !dbg !5950 ; [debug line = 123:34@11:23@57:2@118:2] [debug variable = pProgramCounter.entryIndex.V]
  %p_op = lshr i9 -238, %gepindex_cast, !dbg !2325 ; [#uses=1 type=i9] [debug line = 127:2@11:23@57:2@118:2]
  %tmp = trunc i9 %p_op to i1, !dbg !2325         ; [#uses=1 type=i1] [debug line = 127:2@11:23@57:2@118:2]
  %cond_i1 = and i1 %addrCmp, %tmp, !dbg !2325    ; [#uses=1 type=i1] [debug line = 127:2@11:23@57:2@118:2]
  %cond_i = and i1 %addrCmp1, %cond_i1, !dbg !2325 ; [#uses=1 type=i1] [debug line = 127:2@11:23@57:2@118:2]
  br i1 %cond_i, label %3, label %ALU.exit, !dbg !2325 ; [debug line = 127:2@11:23@57:2@118:2]

; <label>:3                                       ; preds = %2
  %tmp_1 = trunc i3 %instSet_entryIndex_V_2 to i2 ; [#uses=1 type=i2]
  %merge_i_i = call i7 @_ssdm_op_Mux.ap_auto.4i7.i2(i7 52, i7 3, i7 -25, i7 -25, i2 %tmp_1) ; [#uses=0 type=i7]
  call void @llvm.dbg.value(metadata !{i7 %merge_i_i}, i64 0, metadata !5951), !dbg !5961 ; [debug line = 174:5@134:14@11:23@57:2@118:2] [debug variable = ret.V]
  br label %ALU.exit, !dbg !5964                  ; [debug line = 135:3@11:23@57:2@118:2]

ALU.exit:                                         ; preds = %3, %2
  ret void, !dbg !5965                            ; [debug line = 120:1]
}

; [#uses=7]
declare void @llvm.dbg.value(metadata, i64, metadata) nounwind readnone

; [#uses=1]
define weak void @_ssdm_op_SpecTopModule(...) {
entry:
  ret void
}

; [#uses=1]
define weak i32 @_ssdm_op_SpecLoopTripCount(...) {
entry:
  ret i32 0
}

; [#uses=2]
define weak void @_ssdm_op_SpecInterface(...) nounwind {
entry:
  ret void
}

; [#uses=2]
define weak void @_ssdm_op_SpecBitsMap(...) {
entry:
  ret void
}

; [#uses=0]
declare i2 @_ssdm_op_PartSelect.i2.i3.i32.i32(i3, i32, i32) nounwind readnone

; [#uses=0]
declare i1 @_ssdm_op_PartSelect.i1.i9.i32.i32(i9, i32, i32) nounwind readnone

; [#uses=1]
define weak i7 @_ssdm_op_Mux.ap_auto.4i7.i2(i7, i7, i7, i7, i2) {
entry:
  switch i2 %4, label %case3 [
    i2 0, label %case0
    i2 1, label %case1
    i2 -2, label %case2
  ]

case0:                                            ; preds = %case3, %case2, %case1, %entry
  %merge = phi i7 [ %0, %entry ], [ %1, %case1 ], [ %2, %case2 ], [ %3, %case3 ] ; [#uses=1 type=i7]
  ret i7 %merge

case1:                                            ; preds = %entry
  br label %case0

case2:                                            ; preds = %entry
  br label %case0

case3:                                            ; preds = %entry
  br label %case0
}

; [#uses=0]
declare void @_ssdm_SpecMemSelectRead(...)

; [#uses=1]
declare void @_GLOBAL__I_a() nounwind

!opencl.kernels = !{!0, !7, !13, !17, !17, !17, !17, !23, !23, !17, !17, !26, !26, !28, !26, !26, !17, !17, !30, !34, !34, !17, !36, !17, !17, !39, !39, !41, !17, !42, !42, !17, !17, !44, !44, !46, !44, !44, !17, !17, !44, !44, !44, !44, !17, !17, !48, !48, !48, !48, !48, !48, !17, !44, !44, !44, !44, !17, !17, !52, !55, !44, !44, !17, !17, !44, !44, !17, !17, !44, !44, !17, !17, !61, !61, !17, !17, !23, !23, !46, !44, !44, !17, !17, !62, !68, !68, !69, !17, !17, !17, !17, !69, !17, !34, !34, !17, !71, !17, !17, !17, !26, !26, !73, !73, !75, !26, !26, !17, !77, !17, !79, !79, !68, !68, !83, !26, !26, !83, !85, !17, !88, !17, !17, !17, !90, !90, !92, !92, !93, !93, !83, !17, !17, !17, !26, !26, !83, !95, !39, !39, !92, !92, !46, !83, !17}
!hls.encrypted.func = !{}
!llvm.map.gv = !{!97, !104, !109, !114, !119, !126, !131, !136}

!0 = metadata !{null, metadata !1, metadata !2, metadata !3, metadata !4, metadata !5, metadata !6}
!1 = metadata !{metadata !"kernel_arg_addr_space", i32 0, i32 0}
!2 = metadata !{metadata !"kernel_arg_access_qual", metadata !"none", metadata !"none"}
!3 = metadata !{metadata !"kernel_arg_type", metadata !"ap_int<32>", metadata !"ap_int<6>"}
!4 = metadata !{metadata !"kernel_arg_type_qual", metadata !"volatile", metadata !"volatile"}
!5 = metadata !{metadata !"kernel_arg_name", metadata !"startingInst", metadata !"immediate"}
!6 = metadata !{metadata !"reqd_work_group_size", i32 1, i32 1, i32 1}
!7 = metadata !{null, metadata !8, metadata !9, metadata !10, metadata !11, metadata !12, metadata !6}
!8 = metadata !{metadata !"kernel_arg_addr_space", i32 1}
!9 = metadata !{metadata !"kernel_arg_access_qual", metadata !"none"}
!10 = metadata !{metadata !"kernel_arg_type", metadata !"struct Instruction*"}
!11 = metadata !{metadata !"kernel_arg_type_qual", metadata !""}
!12 = metadata !{metadata !"kernel_arg_name", metadata !"pProgramCounter"}
!13 = metadata !{null, metadata !14, metadata !9, metadata !15, metadata !11, metadata !16, metadata !6}
!14 = metadata !{metadata !"kernel_arg_addr_space", i32 0}
!15 = metadata !{metadata !"kernel_arg_type", metadata !"const ap_int<7> &"}
!16 = metadata !{metadata !"kernel_arg_name", metadata !"op2"}
!17 = metadata !{null, metadata !18, metadata !19, metadata !20, metadata !21, metadata !22, metadata !6}
!18 = metadata !{metadata !"kernel_arg_addr_space"}
!19 = metadata !{metadata !"kernel_arg_access_qual"}
!20 = metadata !{metadata !"kernel_arg_type"}
!21 = metadata !{metadata !"kernel_arg_type_qual"}
!22 = metadata !{metadata !"kernel_arg_name"}
!23 = metadata !{null, metadata !14, metadata !9, metadata !24, metadata !11, metadata !25, metadata !6}
!24 = metadata !{metadata !"kernel_arg_type", metadata !"const ap_int<5> &"}
!25 = metadata !{metadata !"kernel_arg_name", metadata !"op"}
!26 = metadata !{null, metadata !14, metadata !9, metadata !27, metadata !11, metadata !25, metadata !6}
!27 = metadata !{metadata !"kernel_arg_type", metadata !"const ap_int_base<32, true> &"}
!28 = metadata !{null, metadata !14, metadata !9, metadata !29, metadata !11, metadata !16, metadata !6}
!29 = metadata !{metadata !"kernel_arg_type", metadata !"const ap_int<6> &"}
!30 = metadata !{null, metadata !1, metadata !2, metadata !31, metadata !32, metadata !33, metadata !6}
!31 = metadata !{metadata !"kernel_arg_type", metadata !"const ap_int_base<12, true> &", metadata !"int"}
!32 = metadata !{metadata !"kernel_arg_type_qual", metadata !"", metadata !""}
!33 = metadata !{metadata !"kernel_arg_name", metadata !"op", metadata !"i_op"}
!34 = metadata !{null, metadata !14, metadata !9, metadata !35, metadata !11, metadata !25, metadata !6}
!35 = metadata !{metadata !"kernel_arg_type", metadata !"int"}
!36 = metadata !{null, metadata !1, metadata !2, metadata !37, metadata !32, metadata !38, metadata !6}
!37 = metadata !{metadata !"kernel_arg_type", metadata !"const ap_int_base<12, true> &", metadata !"const ap_int_base<32, true> &"}
!38 = metadata !{metadata !"kernel_arg_name", metadata !"op", metadata !"op2"}
!39 = metadata !{null, metadata !14, metadata !9, metadata !40, metadata !11, metadata !25, metadata !6}
!40 = metadata !{metadata !"kernel_arg_type", metadata !"const ap_int_base<12, true> &"}
!41 = metadata !{null, metadata !14, metadata !9, metadata !24, metadata !11, metadata !16, metadata !6}
!42 = metadata !{null, metadata !14, metadata !9, metadata !43, metadata !11, metadata !25, metadata !6}
!43 = metadata !{metadata !"kernel_arg_type", metadata !"const volatile ap_int<6> &"}
!44 = metadata !{null, metadata !14, metadata !9, metadata !35, metadata !11, metadata !45, metadata !6}
!45 = metadata !{metadata !"kernel_arg_name", metadata !"val"}
!46 = metadata !{null, metadata !14, metadata !9, metadata !47, metadata !11, metadata !16, metadata !6}
!47 = metadata !{metadata !"kernel_arg_type", metadata !"const ap_int<32> &"}
!48 = metadata !{null, metadata !8, metadata !9, metadata !49, metadata !50, metadata !51, metadata !6}
!49 = metadata !{metadata !"kernel_arg_type", metadata !"char*"}
!50 = metadata !{metadata !"kernel_arg_type_qual", metadata !"const"}
!51 = metadata !{metadata !"kernel_arg_name", metadata !"str"}
!52 = metadata !{null, metadata !14, metadata !9, metadata !53, metadata !11, metadata !54, metadata !6}
!53 = metadata !{metadata !"kernel_arg_type", metadata !"GRegister_Values"}
!54 = metadata !{metadata !"kernel_arg_name", metadata !"Add"}
!55 = metadata !{null, metadata !56, metadata !57, metadata !58, metadata !59, metadata !60, metadata !6}
!56 = metadata !{metadata !"kernel_arg_addr_space", i32 0, i32 0, i32 0}
!57 = metadata !{metadata !"kernel_arg_access_qual", metadata !"none", metadata !"none", metadata !"none"}
!58 = metadata !{metadata !"kernel_arg_type", metadata !"ap_int<5>", metadata !"ap_int<5>", metadata !"ap_int<6>"}
!59 = metadata !{metadata !"kernel_arg_type_qual", metadata !"", metadata !"", metadata !""}
!60 = metadata !{metadata !"kernel_arg_name", metadata !"rS1", metadata !"rS2", metadata !"rDorImmed"}
!61 = metadata !{null, metadata !14, metadata !9, metadata !29, metadata !11, metadata !25, metadata !6}
!62 = metadata !{null, metadata !63, metadata !64, metadata !65, metadata !66, metadata !67, metadata !6}
!63 = metadata !{metadata !"kernel_arg_addr_space", i32 0, i32 0, i32 0, i32 0, i32 0, i32 1, i32 1}
!64 = metadata !{metadata !"kernel_arg_access_qual", metadata !"none", metadata !"none", metadata !"none", metadata !"none", metadata !"none", metadata !"none", metadata !"none"}
!65 = metadata !{metadata !"kernel_arg_type", metadata !"ap_int<32>", metadata !"ap_int<32>", metadata !"ap_int<12>", metadata !"ap_int<5>", metadata !"ap_int<20>", metadata !"ap_int<32>*", metadata !"struct Instruction*"}
!66 = metadata !{metadata !"kernel_arg_type_qual", metadata !"", metadata !"", metadata !"", metadata !"", metadata !"", metadata !"", metadata !""}
!67 = metadata !{metadata !"kernel_arg_name", metadata !"rS1", metadata !"rS2", metadata !"immed", metadata !"immed2", metadata !"immed3", metadata !"rD", metadata !"branchjump"}
!68 = metadata !{null, metadata !14, metadata !9, metadata !27, metadata !11, metadata !16, metadata !6}
!69 = metadata !{null, metadata !14, metadata !9, metadata !70, metadata !11, metadata !16, metadata !6}
!70 = metadata !{metadata !"kernel_arg_type", metadata !"const ap_int_base<32, false> &"}
!71 = metadata !{null, metadata !1, metadata !2, metadata !72, metadata !32, metadata !38, metadata !6}
!72 = metadata !{metadata !"kernel_arg_type", metadata !"const ap_int_base<1, false> &", metadata !"const ap_int_base<32, true> &"}
!73 = metadata !{null, metadata !14, metadata !9, metadata !74, metadata !11, metadata !25, metadata !6}
!74 = metadata !{metadata !"kernel_arg_type", metadata !"const ap_int_base<1, false> &"}
!75 = metadata !{null, metadata !14, metadata !9, metadata !76, metadata !11, metadata !16, metadata !6}
!76 = metadata !{metadata !"kernel_arg_type", metadata !"const ap_int_base<33, true> &"}
!77 = metadata !{null, metadata !14, metadata !9, metadata !35, metadata !11, metadata !78, metadata !6}
!78 = metadata !{metadata !"kernel_arg_name", metadata !"index"}
!79 = metadata !{null, metadata !80, metadata !2, metadata !81, metadata !32, metadata !82, metadata !6}
!80 = metadata !{metadata !"kernel_arg_addr_space", i32 1, i32 0}
!81 = metadata !{metadata !"kernel_arg_type", metadata !"ap_int_base<32, true>*", metadata !"int"}
!82 = metadata !{metadata !"kernel_arg_name", metadata !"bv", metadata !"index"}
!83 = metadata !{null, metadata !1, metadata !2, metadata !84, metadata !32, metadata !38, metadata !6}
!84 = metadata !{metadata !"kernel_arg_type", metadata !"const ap_int_base<32, true> &", metadata !"const ap_int_base<32, true> &"}
!85 = metadata !{null, metadata !80, metadata !2, metadata !86, metadata !32, metadata !87, metadata !6}
!86 = metadata !{metadata !"kernel_arg_type", metadata !"struct Instruction*", metadata !"const ap_int_base<20, true> &"}
!87 = metadata !{metadata !"kernel_arg_name", metadata !"i_op", metadata !"op"}
!88 = metadata !{null, metadata !1, metadata !2, metadata !89, metadata !32, metadata !38, metadata !6}
!89 = metadata !{metadata !"kernel_arg_type", metadata !"const ap_int_base<33, true> &", metadata !"const ap_int_base<5, true> &"}
!90 = metadata !{null, metadata !14, metadata !9, metadata !91, metadata !11, metadata !25, metadata !6}
!91 = metadata !{metadata !"kernel_arg_type", metadata !"const ap_int_base<5, true> &"}
!92 = metadata !{null, metadata !14, metadata !9, metadata !76, metadata !11, metadata !25, metadata !6}
!93 = metadata !{null, metadata !14, metadata !9, metadata !94, metadata !11, metadata !25, metadata !6}
!94 = metadata !{metadata !"kernel_arg_type", metadata !"const ap_int_base<64, true> &"}
!95 = metadata !{null, metadata !1, metadata !2, metadata !96, metadata !32, metadata !38, metadata !6}
!96 = metadata !{metadata !"kernel_arg_type", metadata !"const ap_int_base<32, true> &", metadata !"const ap_int_base<12, true> &"}
!97 = metadata !{metadata !98, i4** @pProgramCounter_name}
!98 = metadata !{metadata !99}
!99 = metadata !{i32 0, i32 3, metadata !100}
!100 = metadata !{metadata !101}
!101 = metadata !{metadata !"pProgramCounter.name", metadata !102, metadata !"enum InstName", i32 0, i32 3}
!102 = metadata !{metadata !103}
!103 = metadata !{i32 0, i32 0, i32 1}
!104 = metadata !{metadata !105, i8** @pProgramCounter_form}
!105 = metadata !{metadata !106}
!106 = metadata !{i32 0, i32 7, metadata !107}
!107 = metadata !{metadata !108}
!108 = metadata !{metadata !"pProgramCounter.format_Sel", metadata !102, metadata !"unsigned char", i32 0, i32 7}
!109 = metadata !{metadata !110, i5** @pProgramCounter_entr}
!110 = metadata !{metadata !111}
!111 = metadata !{i32 0, i32 4, metadata !112}
!112 = metadata !{metadata !113}
!113 = metadata !{metadata !"pProgramCounter.entryIndex.V", metadata !102, metadata !"int5", i32 0, i32 4}
!114 = metadata !{metadata !115, [1 x i32]* @llvm_global_ctors_0}
!115 = metadata !{metadata !116}
!116 = metadata !{i32 0, i32 31, metadata !117}
!117 = metadata !{metadata !118}
!118 = metadata !{metadata !"llvm.global_ctors.0", metadata !102, metadata !"", i32 0, i32 31}
!119 = metadata !{metadata !120, [15 x i4]* @instSet_name}
!120 = metadata !{metadata !121}
!121 = metadata !{i32 0, i32 3, metadata !122}
!122 = metadata !{metadata !123}
!123 = metadata !{metadata !"instSet.name", metadata !124, metadata !"enum InstName", i32 0, i32 3}
!124 = metadata !{metadata !125}
!125 = metadata !{i32 0, i32 14, i32 1}
!126 = metadata !{metadata !127, [15 x i8]* @instSet_format_Sel}
!127 = metadata !{metadata !128}
!128 = metadata !{i32 0, i32 7, metadata !129}
!129 = metadata !{metadata !130}
!130 = metadata !{metadata !"instSet.format_Sel", metadata !124, metadata !"unsigned char", i32 0, i32 7}
!131 = metadata !{metadata !132, [15 x i5]* @instSet_entryIndex_V_1}
!132 = metadata !{metadata !133}
!133 = metadata !{i32 0, i32 4, metadata !134}
!134 = metadata !{metadata !135}
!135 = metadata !{metadata !"instSet.entryIndex.V", metadata !124, metadata !"int5", i32 0, i32 4}
!136 = metadata !{metadata !137, [31 x i32]* @GReg_V}
!137 = metadata !{metadata !138}
!138 = metadata !{i32 0, i32 31, metadata !139}
!139 = metadata !{metadata !140}
!140 = metadata !{metadata !"GReg.V", metadata !141, metadata !"int32", i32 0, i32 31}
!141 = metadata !{metadata !142}
!142 = metadata !{i32 0, i32 30, i32 1}
!143 = metadata !{metadata !144}
!144 = metadata !{i32 0, i32 31, metadata !145}
!145 = metadata !{metadata !146}
!146 = metadata !{metadata !"startingInst.V", metadata !147, metadata !"int32", i32 0, i32 31}
!147 = metadata !{metadata !148}
!148 = metadata !{i32 0, i32 0, i32 0}
!149 = metadata !{metadata !150}
!150 = metadata !{i32 0, i32 5, metadata !151}
!151 = metadata !{metadata !152}
!152 = metadata !{metadata !"immediate.V", metadata !147, metadata !"int6", i32 0, i32 5}
!153 = metadata !{i32 65, i32 1, metadata !154, null}
!154 = metadata !{i32 786443, metadata !155, i32 64, i32 1, metadata !156, i32 0} ; [ DW_TAG_lexical_block ]
!155 = metadata !{i32 786478, i32 0, metadata !156, metadata !"singlecycle_riscv", metadata !"singlecycle_riscv", metadata !"_Z17singlecycle_riscv6ap_intILi32EES_ILi6EE", metadata !156, i32 63, metadata !157, i1 false, i1 true, i32 0, i32 0, null, i32 256, i1 false, null, null, null, metadata !177, i32 64} ; [ DW_TAG_subprogram ]
!156 = metadata !{i32 786473, metadata !"singlecylce_riscv/ins_memory.cpp", metadata !"C:\5CUsers\5CAwais", null} ; [ DW_TAG_file_type ]
!157 = metadata !{i32 786453, i32 0, metadata !"", i32 0, i32 0, i64 0, i64 0, i64 0, i32 0, null, metadata !158, i32 0, i32 0} ; [ DW_TAG_subroutine_type ]
!158 = metadata !{null, metadata !159, metadata !813}
!159 = metadata !{i32 786485, null, metadata !"", null, i32 0, i64 0, i64 0, i64 0, i32 0, metadata !160} ; [ DW_TAG_volatile_type ]
!160 = metadata !{i32 786434, null, metadata !"ap_int<32>", metadata !161, i32 74, i64 32, i64 32, i32 0, i32 0, null, metadata !162, i32 0, null, metadata !812} ; [ DW_TAG_class_type ]
!161 = metadata !{i32 786473, metadata !"E:/vivado1/Vivado/2017.4/common/technology/autopilot\5Cap_int.h", metadata !"C:\5CUsers\5CAwais", null} ; [ DW_TAG_file_type ]
!162 = metadata !{metadata !163, metadata !741, metadata !745, metadata !748, metadata !751, metadata !754, metadata !757, metadata !760, metadata !763, metadata !766, metadata !769, metadata !772, metadata !775, metadata !778, metadata !781, metadata !784, metadata !787, metadata !790, metadata !793, metadata !799, metadata !804, metadata !808, metadata !811}
!163 = metadata !{i32 786460, metadata !160, null, metadata !161, i32 0, i64 0, i64 0, i64 0, i32 0, metadata !164} ; [ DW_TAG_inheritance ]
!164 = metadata !{i32 786434, null, metadata !"ap_int_base<32, true, true>", metadata !165, i32 1453, i64 32, i64 32, i32 0, i32 0, null, metadata !166, i32 0, null, metadata !739} ; [ DW_TAG_class_type ]
!165 = metadata !{i32 786473, metadata !"E:/vivado1/Vivado/2017.4/common/technology/autopilot/ap_int_syn.h", metadata !"C:\5CUsers\5CAwais", null} ; [ DW_TAG_file_type ]
!166 = metadata !{metadata !167, metadata !184, metadata !188, metadata !196, metadata !202, metadata !205, metadata !209, metadata !213, metadata !217, metadata !221, metadata !224, metadata !228, metadata !232, metadata !236, metadata !241, metadata !246, metadata !251, metadata !255, metadata !259, metadata !265, metadata !268, metadata !272, metadata !275, metadata !278, metadata !279, metadata !283, metadata !286, metadata !289, metadata !292, metadata !295, metadata !298, metadata !301, metadata !304, metadata !307, metadata !310, metadata !313, metadata !316, metadata !326, metadata !329, metadata !332, metadata !335, metadata !338, metadata !341, metadata !344, metadata !347, metadata !350, metadata !353, metadata !356, metadata !359, metadata !362, metadata !363, metadata !367, metadata !370, metadata !371, metadata !372, metadata !373, metadata !374, metadata !375, metadata !378, metadata !379, metadata !382, metadata !383, metadata !384, metadata !385, metadata !386, metadata !387, metadata !390, metadata !391, metadata !392, metadata !395, metadata !396, metadata !399, metadata !400, metadata !699, metadata !703, metadata !704, metadata !707, metadata !708, metadata !712, metadata !713, metadata !714, metadata !715, metadata !718, metadata !719, metadata !720, metadata !721, metadata !722, metadata !723, metadata !724, metadata !725, metadata !726, metadata !727, metadata !728, metadata !729, metadata !732, metadata !735, metadata !738}
!167 = metadata !{i32 786460, metadata !164, null, metadata !165, i32 0, i64 0, i64 0, i64 0, i32 0, metadata !168} ; [ DW_TAG_inheritance ]
!168 = metadata !{i32 786434, null, metadata !"ssdm_int<32 + 1024 * 0, true>", metadata !169, i32 34, i64 32, i64 32, i32 0, i32 0, null, metadata !170, i32 0, null, metadata !179} ; [ DW_TAG_class_type ]
!169 = metadata !{i32 786473, metadata !"E:/vivado1/Vivado/2017.4/common/technology/autopilot/etc/autopilot_dt.def", metadata !"C:\5CUsers\5CAwais", null} ; [ DW_TAG_file_type ]
!170 = metadata !{metadata !171, metadata !173}
!171 = metadata !{i32 786445, metadata !168, metadata !"V", metadata !169, i32 34, i64 32, i64 32, i64 0, i32 0, metadata !172} ; [ DW_TAG_member ]
!172 = metadata !{i32 786468, null, metadata !"int32", null, i32 0, i64 32, i64 32, i64 0, i32 0, i32 5} ; [ DW_TAG_base_type ]
!173 = metadata !{i32 786478, i32 0, metadata !168, metadata !"ssdm_int", metadata !"ssdm_int", metadata !"", metadata !169, i32 34, metadata !174, i1 false, i1 false, i32 0, i32 0, null, i32 256, i1 false, null, null, i32 0, metadata !177, i32 34} ; [ DW_TAG_subprogram ]
!174 = metadata !{i32 786453, i32 0, metadata !"", i32 0, i32 0, i64 0, i64 0, i64 0, i32 0, null, metadata !175, i32 0, i32 0} ; [ DW_TAG_subroutine_type ]
!175 = metadata !{null, metadata !176}
!176 = metadata !{i32 786447, i32 0, metadata !"", i32 0, i32 0, i64 64, i64 64, i64 0, i32 64, metadata !168} ; [ DW_TAG_pointer_type ]
!177 = metadata !{metadata !178}
!178 = metadata !{i32 786468}                     ; [ DW_TAG_base_type ]
!179 = metadata !{metadata !180, metadata !182}
!180 = metadata !{i32 786480, null, metadata !"_AP_N", metadata !181, i64 32, null, i32 0, i32 0} ; [ DW_TAG_template_value_parameter ]
!181 = metadata !{i32 786468, null, metadata !"int", null, i32 0, i64 32, i64 32, i64 0, i32 0, i32 5} ; [ DW_TAG_base_type ]
!182 = metadata !{i32 786480, null, metadata !"_AP_S", metadata !183, i64 1, null, i32 0, i32 0} ; [ DW_TAG_template_value_parameter ]
!183 = metadata !{i32 786468, null, metadata !"bool", null, i32 0, i64 8, i64 8, i64 0, i32 0, i32 2} ; [ DW_TAG_base_type ]
!184 = metadata !{i32 786478, i32 0, metadata !164, metadata !"ap_int_base", metadata !"ap_int_base", metadata !"", metadata !165, i32 1494, metadata !185, i1 false, i1 false, i32 0, i32 0, null, i32 256, i1 false, null, null, i32 0, metadata !177, i32 1494} ; [ DW_TAG_subprogram ]
!185 = metadata !{i32 786453, i32 0, metadata !"", i32 0, i32 0, i64 0, i64 0, i64 0, i32 0, null, metadata !186, i32 0, i32 0} ; [ DW_TAG_subroutine_type ]
!186 = metadata !{null, metadata !187}
!187 = metadata !{i32 786447, i32 0, metadata !"", i32 0, i32 0, i64 64, i64 64, i64 0, i32 64, metadata !164} ; [ DW_TAG_pointer_type ]
!188 = metadata !{i32 786478, i32 0, metadata !164, metadata !"ap_int_base<32, true>", metadata !"ap_int_base<32, true>", metadata !"", metadata !165, i32 1506, metadata !189, i1 false, i1 false, i32 0, i32 0, null, i32 256, i1 false, null, metadata !193, i32 0, metadata !177, i32 1506} ; [ DW_TAG_subprogram ]
!189 = metadata !{i32 786453, i32 0, metadata !"", i32 0, i32 0, i64 0, i64 0, i64 0, i32 0, null, metadata !190, i32 0, i32 0} ; [ DW_TAG_subroutine_type ]
!190 = metadata !{null, metadata !187, metadata !191}
!191 = metadata !{i32 786448, null, null, null, i32 0, i64 0, i64 0, i64 0, i32 0, metadata !192} ; [ DW_TAG_reference_type ]
!192 = metadata !{i32 786470, null, metadata !"", null, i32 0, i64 0, i64 0, i64 0, i32 0, metadata !164} ; [ DW_TAG_const_type ]
!193 = metadata !{metadata !194, metadata !195}
!194 = metadata !{i32 786480, null, metadata !"_AP_W2", metadata !181, i64 32, null, i32 0, i32 0} ; [ DW_TAG_template_value_parameter ]
!195 = metadata !{i32 786480, null, metadata !"_AP_S2", metadata !183, i64 1, null, i32 0, i32 0} ; [ DW_TAG_template_value_parameter ]
!196 = metadata !{i32 786478, i32 0, metadata !164, metadata !"ap_int_base<32, true>", metadata !"ap_int_base<32, true>", metadata !"", metadata !165, i32 1509, metadata !197, i1 false, i1 false, i32 0, i32 0, null, i32 256, i1 false, null, metadata !193, i32 0, metadata !177, i32 1509} ; [ DW_TAG_subprogram ]
!197 = metadata !{i32 786453, i32 0, metadata !"", i32 0, i32 0, i64 0, i64 0, i64 0, i32 0, null, metadata !198, i32 0, i32 0} ; [ DW_TAG_subroutine_type ]
!198 = metadata !{null, metadata !187, metadata !199}
!199 = metadata !{i32 786448, null, null, null, i32 0, i64 0, i64 0, i64 0, i32 0, metadata !200} ; [ DW_TAG_reference_type ]
!200 = metadata !{i32 786470, null, metadata !"", null, i32 0, i64 0, i64 0, i64 0, i32 0, metadata !201} ; [ DW_TAG_const_type ]
!201 = metadata !{i32 786485, null, metadata !"", null, i32 0, i64 0, i64 0, i64 0, i32 0, metadata !164} ; [ DW_TAG_volatile_type ]
!202 = metadata !{i32 786478, i32 0, metadata !164, metadata !"ap_int_base", metadata !"ap_int_base", metadata !"", metadata !165, i32 1516, metadata !203, i1 false, i1 false, i32 0, i32 0, null, i32 384, i1 false, null, null, i32 0, metadata !177, i32 1516} ; [ DW_TAG_subprogram ]
!203 = metadata !{i32 786453, i32 0, metadata !"", i32 0, i32 0, i64 0, i64 0, i64 0, i32 0, null, metadata !204, i32 0, i32 0} ; [ DW_TAG_subroutine_type ]
!204 = metadata !{null, metadata !187, metadata !183}
!205 = metadata !{i32 786478, i32 0, metadata !164, metadata !"ap_int_base", metadata !"ap_int_base", metadata !"", metadata !165, i32 1517, metadata !206, i1 false, i1 false, i32 0, i32 0, null, i32 384, i1 false, null, null, i32 0, metadata !177, i32 1517} ; [ DW_TAG_subprogram ]
!206 = metadata !{i32 786453, i32 0, metadata !"", i32 0, i32 0, i64 0, i64 0, i64 0, i32 0, null, metadata !207, i32 0, i32 0} ; [ DW_TAG_subroutine_type ]
!207 = metadata !{null, metadata !187, metadata !208}
!208 = metadata !{i32 786468, null, metadata !"signed char", null, i32 0, i64 8, i64 8, i64 0, i32 0, i32 6} ; [ DW_TAG_base_type ]
!209 = metadata !{i32 786478, i32 0, metadata !164, metadata !"ap_int_base", metadata !"ap_int_base", metadata !"", metadata !165, i32 1518, metadata !210, i1 false, i1 false, i32 0, i32 0, null, i32 384, i1 false, null, null, i32 0, metadata !177, i32 1518} ; [ DW_TAG_subprogram ]
!210 = metadata !{i32 786453, i32 0, metadata !"", i32 0, i32 0, i64 0, i64 0, i64 0, i32 0, null, metadata !211, i32 0, i32 0} ; [ DW_TAG_subroutine_type ]
!211 = metadata !{null, metadata !187, metadata !212}
!212 = metadata !{i32 786468, null, metadata !"unsigned char", null, i32 0, i64 8, i64 8, i64 0, i32 0, i32 8} ; [ DW_TAG_base_type ]
!213 = metadata !{i32 786478, i32 0, metadata !164, metadata !"ap_int_base", metadata !"ap_int_base", metadata !"", metadata !165, i32 1519, metadata !214, i1 false, i1 false, i32 0, i32 0, null, i32 384, i1 false, null, null, i32 0, metadata !177, i32 1519} ; [ DW_TAG_subprogram ]
!214 = metadata !{i32 786453, i32 0, metadata !"", i32 0, i32 0, i64 0, i64 0, i64 0, i32 0, null, metadata !215, i32 0, i32 0} ; [ DW_TAG_subroutine_type ]
!215 = metadata !{null, metadata !187, metadata !216}
!216 = metadata !{i32 786468, null, metadata !"short", null, i32 0, i64 16, i64 16, i64 0, i32 0, i32 5} ; [ DW_TAG_base_type ]
!217 = metadata !{i32 786478, i32 0, metadata !164, metadata !"ap_int_base", metadata !"ap_int_base", metadata !"", metadata !165, i32 1520, metadata !218, i1 false, i1 false, i32 0, i32 0, null, i32 384, i1 false, null, null, i32 0, metadata !177, i32 1520} ; [ DW_TAG_subprogram ]
!218 = metadata !{i32 786453, i32 0, metadata !"", i32 0, i32 0, i64 0, i64 0, i64 0, i32 0, null, metadata !219, i32 0, i32 0} ; [ DW_TAG_subroutine_type ]
!219 = metadata !{null, metadata !187, metadata !220}
!220 = metadata !{i32 786468, null, metadata !"unsigned short", null, i32 0, i64 16, i64 16, i64 0, i32 0, i32 7} ; [ DW_TAG_base_type ]
!221 = metadata !{i32 786478, i32 0, metadata !164, metadata !"ap_int_base", metadata !"ap_int_base", metadata !"", metadata !165, i32 1521, metadata !222, i1 false, i1 false, i32 0, i32 0, null, i32 384, i1 false, null, null, i32 0, metadata !177, i32 1521} ; [ DW_TAG_subprogram ]
!222 = metadata !{i32 786453, i32 0, metadata !"", i32 0, i32 0, i64 0, i64 0, i64 0, i32 0, null, metadata !223, i32 0, i32 0} ; [ DW_TAG_subroutine_type ]
!223 = metadata !{null, metadata !187, metadata !181}
!224 = metadata !{i32 786478, i32 0, metadata !164, metadata !"ap_int_base", metadata !"ap_int_base", metadata !"", metadata !165, i32 1522, metadata !225, i1 false, i1 false, i32 0, i32 0, null, i32 384, i1 false, null, null, i32 0, metadata !177, i32 1522} ; [ DW_TAG_subprogram ]
!225 = metadata !{i32 786453, i32 0, metadata !"", i32 0, i32 0, i64 0, i64 0, i64 0, i32 0, null, metadata !226, i32 0, i32 0} ; [ DW_TAG_subroutine_type ]
!226 = metadata !{null, metadata !187, metadata !227}
!227 = metadata !{i32 786468, null, metadata !"unsigned int", null, i32 0, i64 32, i64 32, i64 0, i32 0, i32 7} ; [ DW_TAG_base_type ]
!228 = metadata !{i32 786478, i32 0, metadata !164, metadata !"ap_int_base", metadata !"ap_int_base", metadata !"", metadata !165, i32 1523, metadata !229, i1 false, i1 false, i32 0, i32 0, null, i32 384, i1 false, null, null, i32 0, metadata !177, i32 1523} ; [ DW_TAG_subprogram ]
!229 = metadata !{i32 786453, i32 0, metadata !"", i32 0, i32 0, i64 0, i64 0, i64 0, i32 0, null, metadata !230, i32 0, i32 0} ; [ DW_TAG_subroutine_type ]
!230 = metadata !{null, metadata !187, metadata !231}
!231 = metadata !{i32 786468, null, metadata !"long int", null, i32 0, i64 32, i64 32, i64 0, i32 0, i32 5} ; [ DW_TAG_base_type ]
!232 = metadata !{i32 786478, i32 0, metadata !164, metadata !"ap_int_base", metadata !"ap_int_base", metadata !"", metadata !165, i32 1524, metadata !233, i1 false, i1 false, i32 0, i32 0, null, i32 384, i1 false, null, null, i32 0, metadata !177, i32 1524} ; [ DW_TAG_subprogram ]
!233 = metadata !{i32 786453, i32 0, metadata !"", i32 0, i32 0, i64 0, i64 0, i64 0, i32 0, null, metadata !234, i32 0, i32 0} ; [ DW_TAG_subroutine_type ]
!234 = metadata !{null, metadata !187, metadata !235}
!235 = metadata !{i32 786468, null, metadata !"long unsigned int", null, i32 0, i64 32, i64 32, i64 0, i32 0, i32 7} ; [ DW_TAG_base_type ]
!236 = metadata !{i32 786478, i32 0, metadata !164, metadata !"ap_int_base", metadata !"ap_int_base", metadata !"", metadata !165, i32 1525, metadata !237, i1 false, i1 false, i32 0, i32 0, null, i32 384, i1 false, null, null, i32 0, metadata !177, i32 1525} ; [ DW_TAG_subprogram ]
!237 = metadata !{i32 786453, i32 0, metadata !"", i32 0, i32 0, i64 0, i64 0, i64 0, i32 0, null, metadata !238, i32 0, i32 0} ; [ DW_TAG_subroutine_type ]
!238 = metadata !{null, metadata !187, metadata !239}
!239 = metadata !{i32 786454, null, metadata !"ap_slong", metadata !165, i32 112, i64 0, i64 0, i64 0, i32 0, metadata !240} ; [ DW_TAG_typedef ]
!240 = metadata !{i32 786468, null, metadata !"long long int", null, i32 0, i64 64, i64 64, i64 0, i32 0, i32 5} ; [ DW_TAG_base_type ]
!241 = metadata !{i32 786478, i32 0, metadata !164, metadata !"ap_int_base", metadata !"ap_int_base", metadata !"", metadata !165, i32 1526, metadata !242, i1 false, i1 false, i32 0, i32 0, null, i32 384, i1 false, null, null, i32 0, metadata !177, i32 1526} ; [ DW_TAG_subprogram ]
!242 = metadata !{i32 786453, i32 0, metadata !"", i32 0, i32 0, i64 0, i64 0, i64 0, i32 0, null, metadata !243, i32 0, i32 0} ; [ DW_TAG_subroutine_type ]
!243 = metadata !{null, metadata !187, metadata !244}
!244 = metadata !{i32 786454, null, metadata !"ap_ulong", metadata !165, i32 111, i64 0, i64 0, i64 0, i32 0, metadata !245} ; [ DW_TAG_typedef ]
!245 = metadata !{i32 786468, null, metadata !"long long unsigned int", null, i32 0, i64 64, i64 64, i64 0, i32 0, i32 7} ; [ DW_TAG_base_type ]
!246 = metadata !{i32 786478, i32 0, metadata !164, metadata !"ap_int_base", metadata !"ap_int_base", metadata !"", metadata !165, i32 1527, metadata !247, i1 false, i1 false, i32 0, i32 0, null, i32 384, i1 false, null, null, i32 0, metadata !177, i32 1527} ; [ DW_TAG_subprogram ]
!247 = metadata !{i32 786453, i32 0, metadata !"", i32 0, i32 0, i64 0, i64 0, i64 0, i32 0, null, metadata !248, i32 0, i32 0} ; [ DW_TAG_subroutine_type ]
!248 = metadata !{null, metadata !187, metadata !249}
!249 = metadata !{i32 786454, null, metadata !"half", metadata !165, i32 54, i64 0, i64 0, i64 0, i32 0, metadata !250} ; [ DW_TAG_typedef ]
!250 = metadata !{i32 786468, null, metadata !"half", null, i32 0, i64 16, i64 16, i64 0, i32 0, i32 4} ; [ DW_TAG_base_type ]
!251 = metadata !{i32 786478, i32 0, metadata !164, metadata !"ap_int_base", metadata !"ap_int_base", metadata !"", metadata !165, i32 1528, metadata !252, i1 false, i1 false, i32 0, i32 0, null, i32 384, i1 false, null, null, i32 0, metadata !177, i32 1528} ; [ DW_TAG_subprogram ]
!252 = metadata !{i32 786453, i32 0, metadata !"", i32 0, i32 0, i64 0, i64 0, i64 0, i32 0, null, metadata !253, i32 0, i32 0} ; [ DW_TAG_subroutine_type ]
!253 = metadata !{null, metadata !187, metadata !254}
!254 = metadata !{i32 786468, null, metadata !"float", null, i32 0, i64 32, i64 32, i64 0, i32 0, i32 4} ; [ DW_TAG_base_type ]
!255 = metadata !{i32 786478, i32 0, metadata !164, metadata !"ap_int_base", metadata !"ap_int_base", metadata !"", metadata !165, i32 1529, metadata !256, i1 false, i1 false, i32 0, i32 0, null, i32 384, i1 false, null, null, i32 0, metadata !177, i32 1529} ; [ DW_TAG_subprogram ]
!256 = metadata !{i32 786453, i32 0, metadata !"", i32 0, i32 0, i64 0, i64 0, i64 0, i32 0, null, metadata !257, i32 0, i32 0} ; [ DW_TAG_subroutine_type ]
!257 = metadata !{null, metadata !187, metadata !258}
!258 = metadata !{i32 786468, null, metadata !"double", null, i32 0, i64 64, i64 64, i64 0, i32 0, i32 4} ; [ DW_TAG_base_type ]
!259 = metadata !{i32 786478, i32 0, metadata !164, metadata !"ap_int_base", metadata !"ap_int_base", metadata !"", metadata !165, i32 1556, metadata !260, i1 false, i1 false, i32 0, i32 0, null, i32 256, i1 false, null, null, i32 0, metadata !177, i32 1556} ; [ DW_TAG_subprogram ]
!260 = metadata !{i32 786453, i32 0, metadata !"", i32 0, i32 0, i64 0, i64 0, i64 0, i32 0, null, metadata !261, i32 0, i32 0} ; [ DW_TAG_subroutine_type ]
!261 = metadata !{null, metadata !187, metadata !262}
!262 = metadata !{i32 786447, null, metadata !"", null, i32 0, i64 64, i64 64, i64 0, i32 0, metadata !263} ; [ DW_TAG_pointer_type ]
!263 = metadata !{i32 786470, null, metadata !"", null, i32 0, i64 0, i64 0, i64 0, i32 0, metadata !264} ; [ DW_TAG_const_type ]
!264 = metadata !{i32 786468, null, metadata !"char", null, i32 0, i64 8, i64 8, i64 0, i32 0, i32 6} ; [ DW_TAG_base_type ]
!265 = metadata !{i32 786478, i32 0, metadata !164, metadata !"ap_int_base", metadata !"ap_int_base", metadata !"", metadata !165, i32 1563, metadata !266, i1 false, i1 false, i32 0, i32 0, null, i32 256, i1 false, null, null, i32 0, metadata !177, i32 1563} ; [ DW_TAG_subprogram ]
!266 = metadata !{i32 786453, i32 0, metadata !"", i32 0, i32 0, i64 0, i64 0, i64 0, i32 0, null, metadata !267, i32 0, i32 0} ; [ DW_TAG_subroutine_type ]
!267 = metadata !{null, metadata !187, metadata !262, metadata !208}
!268 = metadata !{i32 786478, i32 0, metadata !164, metadata !"read", metadata !"read", metadata !"_ZNV11ap_int_baseILi32ELb1ELb1EE4readEv", metadata !165, i32 1584, metadata !269, i1 false, i1 false, i32 0, i32 0, null, i32 256, i1 false, null, null, i32 0, metadata !177, i32 1584} ; [ DW_TAG_subprogram ]
!269 = metadata !{i32 786453, i32 0, metadata !"", i32 0, i32 0, i64 0, i64 0, i64 0, i32 0, null, metadata !270, i32 0, i32 0} ; [ DW_TAG_subroutine_type ]
!270 = metadata !{metadata !164, metadata !271}
!271 = metadata !{i32 786447, i32 0, metadata !"", i32 0, i32 0, i64 64, i64 64, i64 0, i32 64, metadata !201} ; [ DW_TAG_pointer_type ]
!272 = metadata !{i32 786478, i32 0, metadata !164, metadata !"write", metadata !"write", metadata !"_ZNV11ap_int_baseILi32ELb1ELb1EE5writeERKS0_", metadata !165, i32 1590, metadata !273, i1 false, i1 false, i32 0, i32 0, null, i32 256, i1 false, null, null, i32 0, metadata !177, i32 1590} ; [ DW_TAG_subprogram ]
!273 = metadata !{i32 786453, i32 0, metadata !"", i32 0, i32 0, i64 0, i64 0, i64 0, i32 0, null, metadata !274, i32 0, i32 0} ; [ DW_TAG_subroutine_type ]
!274 = metadata !{null, metadata !271, metadata !191}
!275 = metadata !{i32 786478, i32 0, metadata !164, metadata !"operator=", metadata !"operator=", metadata !"_ZNV11ap_int_baseILi32ELb1ELb1EEaSERVKS0_", metadata !165, i32 1602, metadata !276, i1 false, i1 false, i32 0, i32 0, null, i32 256, i1 false, null, null, i32 0, metadata !177, i32 1602} ; [ DW_TAG_subprogram ]
!276 = metadata !{i32 786453, i32 0, metadata !"", i32 0, i32 0, i64 0, i64 0, i64 0, i32 0, null, metadata !277, i32 0, i32 0} ; [ DW_TAG_subroutine_type ]
!277 = metadata !{null, metadata !271, metadata !199}
!278 = metadata !{i32 786478, i32 0, metadata !164, metadata !"operator=", metadata !"operator=", metadata !"_ZNV11ap_int_baseILi32ELb1ELb1EEaSERKS0_", metadata !165, i32 1611, metadata !273, i1 false, i1 false, i32 0, i32 0, null, i32 256, i1 false, null, null, i32 0, metadata !177, i32 1611} ; [ DW_TAG_subprogram ]
!279 = metadata !{i32 786478, i32 0, metadata !164, metadata !"operator=", metadata !"operator=", metadata !"_ZN11ap_int_baseILi32ELb1ELb1EEaSERVKS0_", metadata !165, i32 1634, metadata !280, i1 false, i1 false, i32 0, i32 0, null, i32 256, i1 false, null, null, i32 0, metadata !177, i32 1634} ; [ DW_TAG_subprogram ]
!280 = metadata !{i32 786453, i32 0, metadata !"", i32 0, i32 0, i64 0, i64 0, i64 0, i32 0, null, metadata !281, i32 0, i32 0} ; [ DW_TAG_subroutine_type ]
!281 = metadata !{metadata !282, metadata !187, metadata !199}
!282 = metadata !{i32 786448, null, null, null, i32 0, i64 0, i64 0, i64 0, i32 0, metadata !164} ; [ DW_TAG_reference_type ]
!283 = metadata !{i32 786478, i32 0, metadata !164, metadata !"operator=", metadata !"operator=", metadata !"_ZN11ap_int_baseILi32ELb1ELb1EEaSERKS0_", metadata !165, i32 1639, metadata !284, i1 false, i1 false, i32 0, i32 0, null, i32 256, i1 false, null, null, i32 0, metadata !177, i32 1639} ; [ DW_TAG_subprogram ]
!284 = metadata !{i32 786453, i32 0, metadata !"", i32 0, i32 0, i64 0, i64 0, i64 0, i32 0, null, metadata !285, i32 0, i32 0} ; [ DW_TAG_subroutine_type ]
!285 = metadata !{metadata !282, metadata !187, metadata !191}
!286 = metadata !{i32 786478, i32 0, metadata !164, metadata !"operator=", metadata !"operator=", metadata !"_ZN11ap_int_baseILi32ELb1ELb1EEaSEPKc", metadata !165, i32 1643, metadata !287, i1 false, i1 false, i32 0, i32 0, null, i32 256, i1 false, null, null, i32 0, metadata !177, i32 1643} ; [ DW_TAG_subprogram ]
!287 = metadata !{i32 786453, i32 0, metadata !"", i32 0, i32 0, i64 0, i64 0, i64 0, i32 0, null, metadata !288, i32 0, i32 0} ; [ DW_TAG_subroutine_type ]
!288 = metadata !{metadata !282, metadata !187, metadata !262}
!289 = metadata !{i32 786478, i32 0, metadata !164, metadata !"set", metadata !"set", metadata !"_ZN11ap_int_baseILi32ELb1ELb1EE3setEPKca", metadata !165, i32 1651, metadata !290, i1 false, i1 false, i32 0, i32 0, null, i32 256, i1 false, null, null, i32 0, metadata !177, i32 1651} ; [ DW_TAG_subprogram ]
!290 = metadata !{i32 786453, i32 0, metadata !"", i32 0, i32 0, i64 0, i64 0, i64 0, i32 0, null, metadata !291, i32 0, i32 0} ; [ DW_TAG_subroutine_type ]
!291 = metadata !{metadata !282, metadata !187, metadata !262, metadata !208}
!292 = metadata !{i32 786478, i32 0, metadata !164, metadata !"operator=", metadata !"operator=", metadata !"_ZN11ap_int_baseILi32ELb1ELb1EEaSEa", metadata !165, i32 1665, metadata !293, i1 false, i1 false, i32 0, i32 0, null, i32 256, i1 false, null, null, i32 0, metadata !177, i32 1665} ; [ DW_TAG_subprogram ]
!293 = metadata !{i32 786453, i32 0, metadata !"", i32 0, i32 0, i64 0, i64 0, i64 0, i32 0, null, metadata !294, i32 0, i32 0} ; [ DW_TAG_subroutine_type ]
!294 = metadata !{metadata !282, metadata !187, metadata !208}
!295 = metadata !{i32 786478, i32 0, metadata !164, metadata !"operator=", metadata !"operator=", metadata !"_ZN11ap_int_baseILi32ELb1ELb1EEaSEh", metadata !165, i32 1666, metadata !296, i1 false, i1 false, i32 0, i32 0, null, i32 256, i1 false, null, null, i32 0, metadata !177, i32 1666} ; [ DW_TAG_subprogram ]
!296 = metadata !{i32 786453, i32 0, metadata !"", i32 0, i32 0, i64 0, i64 0, i64 0, i32 0, null, metadata !297, i32 0, i32 0} ; [ DW_TAG_subroutine_type ]
!297 = metadata !{metadata !282, metadata !187, metadata !212}
!298 = metadata !{i32 786478, i32 0, metadata !164, metadata !"operator=", metadata !"operator=", metadata !"_ZN11ap_int_baseILi32ELb1ELb1EEaSEs", metadata !165, i32 1667, metadata !299, i1 false, i1 false, i32 0, i32 0, null, i32 256, i1 false, null, null, i32 0, metadata !177, i32 1667} ; [ DW_TAG_subprogram ]
!299 = metadata !{i32 786453, i32 0, metadata !"", i32 0, i32 0, i64 0, i64 0, i64 0, i32 0, null, metadata !300, i32 0, i32 0} ; [ DW_TAG_subroutine_type ]
!300 = metadata !{metadata !282, metadata !187, metadata !216}
!301 = metadata !{i32 786478, i32 0, metadata !164, metadata !"operator=", metadata !"operator=", metadata !"_ZN11ap_int_baseILi32ELb1ELb1EEaSEt", metadata !165, i32 1668, metadata !302, i1 false, i1 false, i32 0, i32 0, null, i32 256, i1 false, null, null, i32 0, metadata !177, i32 1668} ; [ DW_TAG_subprogram ]
!302 = metadata !{i32 786453, i32 0, metadata !"", i32 0, i32 0, i64 0, i64 0, i64 0, i32 0, null, metadata !303, i32 0, i32 0} ; [ DW_TAG_subroutine_type ]
!303 = metadata !{metadata !282, metadata !187, metadata !220}
!304 = metadata !{i32 786478, i32 0, metadata !164, metadata !"operator=", metadata !"operator=", metadata !"_ZN11ap_int_baseILi32ELb1ELb1EEaSEi", metadata !165, i32 1669, metadata !305, i1 false, i1 false, i32 0, i32 0, null, i32 256, i1 false, null, null, i32 0, metadata !177, i32 1669} ; [ DW_TAG_subprogram ]
!305 = metadata !{i32 786453, i32 0, metadata !"", i32 0, i32 0, i64 0, i64 0, i64 0, i32 0, null, metadata !306, i32 0, i32 0} ; [ DW_TAG_subroutine_type ]
!306 = metadata !{metadata !282, metadata !187, metadata !181}
!307 = metadata !{i32 786478, i32 0, metadata !164, metadata !"operator=", metadata !"operator=", metadata !"_ZN11ap_int_baseILi32ELb1ELb1EEaSEj", metadata !165, i32 1670, metadata !308, i1 false, i1 false, i32 0, i32 0, null, i32 256, i1 false, null, null, i32 0, metadata !177, i32 1670} ; [ DW_TAG_subprogram ]
!308 = metadata !{i32 786453, i32 0, metadata !"", i32 0, i32 0, i64 0, i64 0, i64 0, i32 0, null, metadata !309, i32 0, i32 0} ; [ DW_TAG_subroutine_type ]
!309 = metadata !{metadata !282, metadata !187, metadata !227}
!310 = metadata !{i32 786478, i32 0, metadata !164, metadata !"operator=", metadata !"operator=", metadata !"_ZN11ap_int_baseILi32ELb1ELb1EEaSEx", metadata !165, i32 1671, metadata !311, i1 false, i1 false, i32 0, i32 0, null, i32 256, i1 false, null, null, i32 0, metadata !177, i32 1671} ; [ DW_TAG_subprogram ]
!311 = metadata !{i32 786453, i32 0, metadata !"", i32 0, i32 0, i64 0, i64 0, i64 0, i32 0, null, metadata !312, i32 0, i32 0} ; [ DW_TAG_subroutine_type ]
!312 = metadata !{metadata !282, metadata !187, metadata !239}
!313 = metadata !{i32 786478, i32 0, metadata !164, metadata !"operator=", metadata !"operator=", metadata !"_ZN11ap_int_baseILi32ELb1ELb1EEaSEy", metadata !165, i32 1672, metadata !314, i1 false, i1 false, i32 0, i32 0, null, i32 256, i1 false, null, null, i32 0, metadata !177, i32 1672} ; [ DW_TAG_subprogram ]
!314 = metadata !{i32 786453, i32 0, metadata !"", i32 0, i32 0, i64 0, i64 0, i64 0, i32 0, null, metadata !315, i32 0, i32 0} ; [ DW_TAG_subroutine_type ]
!315 = metadata !{metadata !282, metadata !187, metadata !244}
!316 = metadata !{i32 786478, i32 0, metadata !164, metadata !"operator int", metadata !"operator int", metadata !"_ZNK11ap_int_baseILi32ELb1ELb1EEcviEv", metadata !165, i32 1710, metadata !317, i1 false, i1 false, i32 0, i32 0, null, i32 256, i1 false, null, null, i32 0, metadata !177, i32 1710} ; [ DW_TAG_subprogram ]
!317 = metadata !{i32 786453, i32 0, metadata !"", i32 0, i32 0, i64 0, i64 0, i64 0, i32 0, null, metadata !318, i32 0, i32 0} ; [ DW_TAG_subroutine_type ]
!318 = metadata !{metadata !319, metadata !325}
!319 = metadata !{i32 786454, metadata !164, metadata !"RetType", metadata !165, i32 1458, i64 0, i64 0, i64 0, i32 0, metadata !320} ; [ DW_TAG_typedef ]
!320 = metadata !{i32 786454, metadata !321, metadata !"Type", metadata !165, i32 1441, i64 0, i64 0, i64 0, i32 0, metadata !181} ; [ DW_TAG_typedef ]
!321 = metadata !{i32 786434, null, metadata !"retval<4, true>", metadata !165, i32 1440, i64 8, i64 8, i32 0, i32 0, null, metadata !322, i32 0, null, metadata !323} ; [ DW_TAG_class_type ]
!322 = metadata !{i32 0}
!323 = metadata !{metadata !324, metadata !182}
!324 = metadata !{i32 786480, null, metadata !"_AP_N", metadata !181, i64 4, null, i32 0, i32 0} ; [ DW_TAG_template_value_parameter ]
!325 = metadata !{i32 786447, i32 0, metadata !"", i32 0, i32 0, i64 64, i64 64, i64 0, i32 64, metadata !192} ; [ DW_TAG_pointer_type ]
!326 = metadata !{i32 786478, i32 0, metadata !164, metadata !"to_bool", metadata !"to_bool", metadata !"_ZNK11ap_int_baseILi32ELb1ELb1EE7to_boolEv", metadata !165, i32 1716, metadata !327, i1 false, i1 false, i32 0, i32 0, null, i32 256, i1 false, null, null, i32 0, metadata !177, i32 1716} ; [ DW_TAG_subprogram ]
!327 = metadata !{i32 786453, i32 0, metadata !"", i32 0, i32 0, i64 0, i64 0, i64 0, i32 0, null, metadata !328, i32 0, i32 0} ; [ DW_TAG_subroutine_type ]
!328 = metadata !{metadata !183, metadata !325}
!329 = metadata !{i32 786478, i32 0, metadata !164, metadata !"to_uchar", metadata !"to_uchar", metadata !"_ZNK11ap_int_baseILi32ELb1ELb1EE8to_ucharEv", metadata !165, i32 1717, metadata !330, i1 false, i1 false, i32 0, i32 0, null, i32 256, i1 false, null, null, i32 0, metadata !177, i32 1717} ; [ DW_TAG_subprogram ]
!330 = metadata !{i32 786453, i32 0, metadata !"", i32 0, i32 0, i64 0, i64 0, i64 0, i32 0, null, metadata !331, i32 0, i32 0} ; [ DW_TAG_subroutine_type ]
!331 = metadata !{metadata !212, metadata !325}
!332 = metadata !{i32 786478, i32 0, metadata !164, metadata !"to_char", metadata !"to_char", metadata !"_ZNK11ap_int_baseILi32ELb1ELb1EE7to_charEv", metadata !165, i32 1718, metadata !333, i1 false, i1 false, i32 0, i32 0, null, i32 256, i1 false, null, null, i32 0, metadata !177, i32 1718} ; [ DW_TAG_subprogram ]
!333 = metadata !{i32 786453, i32 0, metadata !"", i32 0, i32 0, i64 0, i64 0, i64 0, i32 0, null, metadata !334, i32 0, i32 0} ; [ DW_TAG_subroutine_type ]
!334 = metadata !{metadata !208, metadata !325}
!335 = metadata !{i32 786478, i32 0, metadata !164, metadata !"to_ushort", metadata !"to_ushort", metadata !"_ZNK11ap_int_baseILi32ELb1ELb1EE9to_ushortEv", metadata !165, i32 1719, metadata !336, i1 false, i1 false, i32 0, i32 0, null, i32 256, i1 false, null, null, i32 0, metadata !177, i32 1719} ; [ DW_TAG_subprogram ]
!336 = metadata !{i32 786453, i32 0, metadata !"", i32 0, i32 0, i64 0, i64 0, i64 0, i32 0, null, metadata !337, i32 0, i32 0} ; [ DW_TAG_subroutine_type ]
!337 = metadata !{metadata !220, metadata !325}
!338 = metadata !{i32 786478, i32 0, metadata !164, metadata !"to_short", metadata !"to_short", metadata !"_ZNK11ap_int_baseILi32ELb1ELb1EE8to_shortEv", metadata !165, i32 1720, metadata !339, i1 false, i1 false, i32 0, i32 0, null, i32 256, i1 false, null, null, i32 0, metadata !177, i32 1720} ; [ DW_TAG_subprogram ]
!339 = metadata !{i32 786453, i32 0, metadata !"", i32 0, i32 0, i64 0, i64 0, i64 0, i32 0, null, metadata !340, i32 0, i32 0} ; [ DW_TAG_subroutine_type ]
!340 = metadata !{metadata !216, metadata !325}
!341 = metadata !{i32 786478, i32 0, metadata !164, metadata !"to_int", metadata !"to_int", metadata !"_ZNK11ap_int_baseILi32ELb1ELb1EE6to_intEv", metadata !165, i32 1721, metadata !342, i1 false, i1 false, i32 0, i32 0, null, i32 256, i1 false, null, null, i32 0, metadata !177, i32 1721} ; [ DW_TAG_subprogram ]
!342 = metadata !{i32 786453, i32 0, metadata !"", i32 0, i32 0, i64 0, i64 0, i64 0, i32 0, null, metadata !343, i32 0, i32 0} ; [ DW_TAG_subroutine_type ]
!343 = metadata !{metadata !181, metadata !325}
!344 = metadata !{i32 786478, i32 0, metadata !164, metadata !"to_uint", metadata !"to_uint", metadata !"_ZNK11ap_int_baseILi32ELb1ELb1EE7to_uintEv", metadata !165, i32 1722, metadata !345, i1 false, i1 false, i32 0, i32 0, null, i32 256, i1 false, null, null, i32 0, metadata !177, i32 1722} ; [ DW_TAG_subprogram ]
!345 = metadata !{i32 786453, i32 0, metadata !"", i32 0, i32 0, i64 0, i64 0, i64 0, i32 0, null, metadata !346, i32 0, i32 0} ; [ DW_TAG_subroutine_type ]
!346 = metadata !{metadata !227, metadata !325}
!347 = metadata !{i32 786478, i32 0, metadata !164, metadata !"to_long", metadata !"to_long", metadata !"_ZNK11ap_int_baseILi32ELb1ELb1EE7to_longEv", metadata !165, i32 1723, metadata !348, i1 false, i1 false, i32 0, i32 0, null, i32 256, i1 false, null, null, i32 0, metadata !177, i32 1723} ; [ DW_TAG_subprogram ]
!348 = metadata !{i32 786453, i32 0, metadata !"", i32 0, i32 0, i64 0, i64 0, i64 0, i32 0, null, metadata !349, i32 0, i32 0} ; [ DW_TAG_subroutine_type ]
!349 = metadata !{metadata !231, metadata !325}
!350 = metadata !{i32 786478, i32 0, metadata !164, metadata !"to_ulong", metadata !"to_ulong", metadata !"_ZNK11ap_int_baseILi32ELb1ELb1EE8to_ulongEv", metadata !165, i32 1724, metadata !351, i1 false, i1 false, i32 0, i32 0, null, i32 256, i1 false, null, null, i32 0, metadata !177, i32 1724} ; [ DW_TAG_subprogram ]
!351 = metadata !{i32 786453, i32 0, metadata !"", i32 0, i32 0, i64 0, i64 0, i64 0, i32 0, null, metadata !352, i32 0, i32 0} ; [ DW_TAG_subroutine_type ]
!352 = metadata !{metadata !235, metadata !325}
!353 = metadata !{i32 786478, i32 0, metadata !164, metadata !"to_int64", metadata !"to_int64", metadata !"_ZNK11ap_int_baseILi32ELb1ELb1EE8to_int64Ev", metadata !165, i32 1725, metadata !354, i1 false, i1 false, i32 0, i32 0, null, i32 256, i1 false, null, null, i32 0, metadata !177, i32 1725} ; [ DW_TAG_subprogram ]
!354 = metadata !{i32 786453, i32 0, metadata !"", i32 0, i32 0, i64 0, i64 0, i64 0, i32 0, null, metadata !355, i32 0, i32 0} ; [ DW_TAG_subroutine_type ]
!355 = metadata !{metadata !239, metadata !325}
!356 = metadata !{i32 786478, i32 0, metadata !164, metadata !"to_uint64", metadata !"to_uint64", metadata !"_ZNK11ap_int_baseILi32ELb1ELb1EE9to_uint64Ev", metadata !165, i32 1726, metadata !357, i1 false, i1 false, i32 0, i32 0, null, i32 256, i1 false, null, null, i32 0, metadata !177, i32 1726} ; [ DW_TAG_subprogram ]
!357 = metadata !{i32 786453, i32 0, metadata !"", i32 0, i32 0, i64 0, i64 0, i64 0, i32 0, null, metadata !358, i32 0, i32 0} ; [ DW_TAG_subroutine_type ]
!358 = metadata !{metadata !244, metadata !325}
!359 = metadata !{i32 786478, i32 0, metadata !164, metadata !"to_double", metadata !"to_double", metadata !"_ZNK11ap_int_baseILi32ELb1ELb1EE9to_doubleEv", metadata !165, i32 1727, metadata !360, i1 false, i1 false, i32 0, i32 0, null, i32 256, i1 false, null, null, i32 0, metadata !177, i32 1727} ; [ DW_TAG_subprogram ]
!360 = metadata !{i32 786453, i32 0, metadata !"", i32 0, i32 0, i64 0, i64 0, i64 0, i32 0, null, metadata !361, i32 0, i32 0} ; [ DW_TAG_subroutine_type ]
!361 = metadata !{metadata !258, metadata !325}
!362 = metadata !{i32 786478, i32 0, metadata !164, metadata !"length", metadata !"length", metadata !"_ZNK11ap_int_baseILi32ELb1ELb1EE6lengthEv", metadata !165, i32 1741, metadata !342, i1 false, i1 false, i32 0, i32 0, null, i32 256, i1 false, null, null, i32 0, metadata !177, i32 1741} ; [ DW_TAG_subprogram ]
!363 = metadata !{i32 786478, i32 0, metadata !164, metadata !"length", metadata !"length", metadata !"_ZNVK11ap_int_baseILi32ELb1ELb1EE6lengthEv", metadata !165, i32 1742, metadata !364, i1 false, i1 false, i32 0, i32 0, null, i32 256, i1 false, null, null, i32 0, metadata !177, i32 1742} ; [ DW_TAG_subprogram ]
!364 = metadata !{i32 786453, i32 0, metadata !"", i32 0, i32 0, i64 0, i64 0, i64 0, i32 0, null, metadata !365, i32 0, i32 0} ; [ DW_TAG_subroutine_type ]
!365 = metadata !{metadata !181, metadata !366}
!366 = metadata !{i32 786447, i32 0, metadata !"", i32 0, i32 0, i64 64, i64 64, i64 0, i32 64, metadata !200} ; [ DW_TAG_pointer_type ]
!367 = metadata !{i32 786478, i32 0, metadata !164, metadata !"reverse", metadata !"reverse", metadata !"_ZN11ap_int_baseILi32ELb1ELb1EE7reverseEv", metadata !165, i32 1747, metadata !368, i1 false, i1 false, i32 0, i32 0, null, i32 256, i1 false, null, null, i32 0, metadata !177, i32 1747} ; [ DW_TAG_subprogram ]
!368 = metadata !{i32 786453, i32 0, metadata !"", i32 0, i32 0, i64 0, i64 0, i64 0, i32 0, null, metadata !369, i32 0, i32 0} ; [ DW_TAG_subroutine_type ]
!369 = metadata !{metadata !282, metadata !187}
!370 = metadata !{i32 786478, i32 0, metadata !164, metadata !"iszero", metadata !"iszero", metadata !"_ZNK11ap_int_baseILi32ELb1ELb1EE6iszeroEv", metadata !165, i32 1753, metadata !327, i1 false, i1 false, i32 0, i32 0, null, i32 256, i1 false, null, null, i32 0, metadata !177, i32 1753} ; [ DW_TAG_subprogram ]
!371 = metadata !{i32 786478, i32 0, metadata !164, metadata !"is_zero", metadata !"is_zero", metadata !"_ZNK11ap_int_baseILi32ELb1ELb1EE7is_zeroEv", metadata !165, i32 1758, metadata !327, i1 false, i1 false, i32 0, i32 0, null, i32 256, i1 false, null, null, i32 0, metadata !177, i32 1758} ; [ DW_TAG_subprogram ]
!372 = metadata !{i32 786478, i32 0, metadata !164, metadata !"sign", metadata !"sign", metadata !"_ZNK11ap_int_baseILi32ELb1ELb1EE4signEv", metadata !165, i32 1763, metadata !327, i1 false, i1 false, i32 0, i32 0, null, i32 256, i1 false, null, null, i32 0, metadata !177, i32 1763} ; [ DW_TAG_subprogram ]
!373 = metadata !{i32 786478, i32 0, metadata !164, metadata !"clear", metadata !"clear", metadata !"_ZN11ap_int_baseILi32ELb1ELb1EE5clearEi", metadata !165, i32 1771, metadata !222, i1 false, i1 false, i32 0, i32 0, null, i32 256, i1 false, null, null, i32 0, metadata !177, i32 1771} ; [ DW_TAG_subprogram ]
!374 = metadata !{i32 786478, i32 0, metadata !164, metadata !"invert", metadata !"invert", metadata !"_ZN11ap_int_baseILi32ELb1ELb1EE6invertEi", metadata !165, i32 1777, metadata !222, i1 false, i1 false, i32 0, i32 0, null, i32 256, i1 false, null, null, i32 0, metadata !177, i32 1777} ; [ DW_TAG_subprogram ]
!375 = metadata !{i32 786478, i32 0, metadata !164, metadata !"test", metadata !"test", metadata !"_ZNK11ap_int_baseILi32ELb1ELb1EE4testEi", metadata !165, i32 1785, metadata !376, i1 false, i1 false, i32 0, i32 0, null, i32 256, i1 false, null, null, i32 0, metadata !177, i32 1785} ; [ DW_TAG_subprogram ]
!376 = metadata !{i32 786453, i32 0, metadata !"", i32 0, i32 0, i64 0, i64 0, i64 0, i32 0, null, metadata !377, i32 0, i32 0} ; [ DW_TAG_subroutine_type ]
!377 = metadata !{metadata !183, metadata !325, metadata !181}
!378 = metadata !{i32 786478, i32 0, metadata !164, metadata !"set", metadata !"set", metadata !"_ZN11ap_int_baseILi32ELb1ELb1EE3setEi", metadata !165, i32 1791, metadata !222, i1 false, i1 false, i32 0, i32 0, null, i32 256, i1 false, null, null, i32 0, metadata !177, i32 1791} ; [ DW_TAG_subprogram ]
!379 = metadata !{i32 786478, i32 0, metadata !164, metadata !"set", metadata !"set", metadata !"_ZN11ap_int_baseILi32ELb1ELb1EE3setEib", metadata !165, i32 1797, metadata !380, i1 false, i1 false, i32 0, i32 0, null, i32 256, i1 false, null, null, i32 0, metadata !177, i32 1797} ; [ DW_TAG_subprogram ]
!380 = metadata !{i32 786453, i32 0, metadata !"", i32 0, i32 0, i64 0, i64 0, i64 0, i32 0, null, metadata !381, i32 0, i32 0} ; [ DW_TAG_subroutine_type ]
!381 = metadata !{null, metadata !187, metadata !181, metadata !183}
!382 = metadata !{i32 786478, i32 0, metadata !164, metadata !"lrotate", metadata !"lrotate", metadata !"_ZN11ap_int_baseILi32ELb1ELb1EE7lrotateEi", metadata !165, i32 1804, metadata !222, i1 false, i1 false, i32 0, i32 0, null, i32 256, i1 false, null, null, i32 0, metadata !177, i32 1804} ; [ DW_TAG_subprogram ]
!383 = metadata !{i32 786478, i32 0, metadata !164, metadata !"rrotate", metadata !"rrotate", metadata !"_ZN11ap_int_baseILi32ELb1ELb1EE7rrotateEi", metadata !165, i32 1813, metadata !222, i1 false, i1 false, i32 0, i32 0, null, i32 256, i1 false, null, null, i32 0, metadata !177, i32 1813} ; [ DW_TAG_subprogram ]
!384 = metadata !{i32 786478, i32 0, metadata !164, metadata !"set_bit", metadata !"set_bit", metadata !"_ZN11ap_int_baseILi32ELb1ELb1EE7set_bitEib", metadata !165, i32 1821, metadata !380, i1 false, i1 false, i32 0, i32 0, null, i32 256, i1 false, null, null, i32 0, metadata !177, i32 1821} ; [ DW_TAG_subprogram ]
!385 = metadata !{i32 786478, i32 0, metadata !164, metadata !"get_bit", metadata !"get_bit", metadata !"_ZNK11ap_int_baseILi32ELb1ELb1EE7get_bitEi", metadata !165, i32 1826, metadata !376, i1 false, i1 false, i32 0, i32 0, null, i32 256, i1 false, null, null, i32 0, metadata !177, i32 1826} ; [ DW_TAG_subprogram ]
!386 = metadata !{i32 786478, i32 0, metadata !164, metadata !"b_not", metadata !"b_not", metadata !"_ZN11ap_int_baseILi32ELb1ELb1EE5b_notEv", metadata !165, i32 1831, metadata !185, i1 false, i1 false, i32 0, i32 0, null, i32 256, i1 false, null, null, i32 0, metadata !177, i32 1831} ; [ DW_TAG_subprogram ]
!387 = metadata !{i32 786478, i32 0, metadata !164, metadata !"countLeadingZeros", metadata !"countLeadingZeros", metadata !"_ZN11ap_int_baseILi32ELb1ELb1EE17countLeadingZerosEv", metadata !165, i32 1838, metadata !388, i1 false, i1 false, i32 0, i32 0, null, i32 256, i1 false, null, null, i32 0, metadata !177, i32 1838} ; [ DW_TAG_subprogram ]
!388 = metadata !{i32 786453, i32 0, metadata !"", i32 0, i32 0, i64 0, i64 0, i64 0, i32 0, null, metadata !389, i32 0, i32 0} ; [ DW_TAG_subroutine_type ]
!389 = metadata !{metadata !181, metadata !187}
!390 = metadata !{i32 786478, i32 0, metadata !164, metadata !"operator++", metadata !"operator++", metadata !"_ZN11ap_int_baseILi32ELb1ELb1EEppEv", metadata !165, i32 1895, metadata !368, i1 false, i1 false, i32 0, i32 0, null, i32 256, i1 false, null, null, i32 0, metadata !177, i32 1895} ; [ DW_TAG_subprogram ]
!391 = metadata !{i32 786478, i32 0, metadata !164, metadata !"operator--", metadata !"operator--", metadata !"_ZN11ap_int_baseILi32ELb1ELb1EEmmEv", metadata !165, i32 1899, metadata !368, i1 false, i1 false, i32 0, i32 0, null, i32 256, i1 false, null, null, i32 0, metadata !177, i32 1899} ; [ DW_TAG_subprogram ]
!392 = metadata !{i32 786478, i32 0, metadata !164, metadata !"operator++", metadata !"operator++", metadata !"_ZN11ap_int_baseILi32ELb1ELb1EEppEi", metadata !165, i32 1907, metadata !393, i1 false, i1 false, i32 0, i32 0, null, i32 256, i1 false, null, null, i32 0, metadata !177, i32 1907} ; [ DW_TAG_subprogram ]
!393 = metadata !{i32 786453, i32 0, metadata !"", i32 0, i32 0, i64 0, i64 0, i64 0, i32 0, null, metadata !394, i32 0, i32 0} ; [ DW_TAG_subroutine_type ]
!394 = metadata !{metadata !192, metadata !187, metadata !181}
!395 = metadata !{i32 786478, i32 0, metadata !164, metadata !"operator--", metadata !"operator--", metadata !"_ZN11ap_int_baseILi32ELb1ELb1EEmmEi", metadata !165, i32 1912, metadata !393, i1 false, i1 false, i32 0, i32 0, null, i32 256, i1 false, null, null, i32 0, metadata !177, i32 1912} ; [ DW_TAG_subprogram ]
!396 = metadata !{i32 786478, i32 0, metadata !164, metadata !"operator+", metadata !"operator+", metadata !"_ZNK11ap_int_baseILi32ELb1ELb1EEpsEv", metadata !165, i32 1921, metadata !397, i1 false, i1 false, i32 0, i32 0, null, i32 256, i1 false, null, null, i32 0, metadata !177, i32 1921} ; [ DW_TAG_subprogram ]
!397 = metadata !{i32 786453, i32 0, metadata !"", i32 0, i32 0, i64 0, i64 0, i64 0, i32 0, null, metadata !398, i32 0, i32 0} ; [ DW_TAG_subroutine_type ]
!398 = metadata !{metadata !164, metadata !325}
!399 = metadata !{i32 786478, i32 0, metadata !164, metadata !"operator!", metadata !"operator!", metadata !"_ZNK11ap_int_baseILi32ELb1ELb1EEntEv", metadata !165, i32 1927, metadata !327, i1 false, i1 false, i32 0, i32 0, null, i32 256, i1 false, null, null, i32 0, metadata !177, i32 1927} ; [ DW_TAG_subprogram ]
!400 = metadata !{i32 786478, i32 0, metadata !164, metadata !"operator-", metadata !"operator-", metadata !"_ZNK11ap_int_baseILi32ELb1ELb1EEngEv", metadata !165, i32 1932, metadata !401, i1 false, i1 false, i32 0, i32 0, null, i32 256, i1 false, null, null, i32 0, metadata !177, i32 1932} ; [ DW_TAG_subprogram ]
!401 = metadata !{i32 786453, i32 0, metadata !"", i32 0, i32 0, i64 0, i64 0, i64 0, i32 0, null, metadata !402, i32 0, i32 0} ; [ DW_TAG_subroutine_type ]
!402 = metadata !{metadata !403, metadata !325}
!403 = metadata !{i32 786434, null, metadata !"ap_int_base<33, true, true>", metadata !165, i32 1453, i64 64, i64 32, i32 0, i32 0, null, metadata !404, i32 0, null, metadata !697} ; [ DW_TAG_class_type ]
!404 = metadata !{metadata !405, metadata !416, metadata !420, metadata !427, metadata !433, metadata !436, metadata !439, metadata !442, metadata !445, metadata !448, metadata !451, metadata !454, metadata !457, metadata !460, metadata !463, metadata !466, metadata !469, metadata !472, metadata !475, metadata !478, metadata !481, metadata !485, metadata !488, metadata !491, metadata !492, metadata !496, metadata !499, metadata !502, metadata !505, metadata !508, metadata !511, metadata !514, metadata !517, metadata !520, metadata !523, metadata !526, metadata !529, metadata !538, metadata !541, metadata !544, metadata !547, metadata !550, metadata !553, metadata !556, metadata !559, metadata !562, metadata !565, metadata !568, metadata !571, metadata !574, metadata !575, metadata !579, metadata !582, metadata !583, metadata !584, metadata !585, metadata !586, metadata !587, metadata !590, metadata !591, metadata !594, metadata !595, metadata !596, metadata !597, metadata !598, metadata !599, metadata !602, metadata !603, metadata !604, metadata !607, metadata !608, metadata !611, metadata !612, metadata !616, metadata !620, metadata !621, metadata !624, metadata !625, metadata !664, metadata !665, metadata !666, metadata !667, metadata !670, metadata !671, metadata !672, metadata !673, metadata !674, metadata !675, metadata !676, metadata !677, metadata !678, metadata !679, metadata !680, metadata !681, metadata !691, metadata !694}
!405 = metadata !{i32 786460, metadata !403, null, metadata !165, i32 0, i64 0, i64 0, i64 0, i32 0, metadata !406} ; [ DW_TAG_inheritance ]
!406 = metadata !{i32 786434, null, metadata !"ssdm_int<33 + 1024 * 0, true>", metadata !169, i32 35, i64 64, i64 32, i32 0, i32 0, null, metadata !407, i32 0, null, metadata !414} ; [ DW_TAG_class_type ]
!407 = metadata !{metadata !408, metadata !410}
!408 = metadata !{i32 786445, metadata !406, metadata !"V", metadata !169, i32 35, i64 33, i64 32, i64 0, i32 0, metadata !409} ; [ DW_TAG_member ]
!409 = metadata !{i32 786468, null, metadata !"int33", null, i32 0, i64 33, i64 32, i64 0, i32 0, i32 5} ; [ DW_TAG_base_type ]
!410 = metadata !{i32 786478, i32 0, metadata !406, metadata !"ssdm_int", metadata !"ssdm_int", metadata !"", metadata !169, i32 35, metadata !411, i1 false, i1 false, i32 0, i32 0, null, i32 256, i1 false, null, null, i32 0, metadata !177, i32 35} ; [ DW_TAG_subprogram ]
!411 = metadata !{i32 786453, i32 0, metadata !"", i32 0, i32 0, i64 0, i64 0, i64 0, i32 0, null, metadata !412, i32 0, i32 0} ; [ DW_TAG_subroutine_type ]
!412 = metadata !{null, metadata !413}
!413 = metadata !{i32 786447, i32 0, metadata !"", i32 0, i32 0, i64 64, i64 64, i64 0, i32 64, metadata !406} ; [ DW_TAG_pointer_type ]
!414 = metadata !{metadata !415, metadata !182}
!415 = metadata !{i32 786480, null, metadata !"_AP_N", metadata !181, i64 33, null, i32 0, i32 0} ; [ DW_TAG_template_value_parameter ]
!416 = metadata !{i32 786478, i32 0, metadata !403, metadata !"ap_int_base", metadata !"ap_int_base", metadata !"", metadata !165, i32 1494, metadata !417, i1 false, i1 false, i32 0, i32 0, null, i32 256, i1 false, null, null, i32 0, metadata !177, i32 1494} ; [ DW_TAG_subprogram ]
!417 = metadata !{i32 786453, i32 0, metadata !"", i32 0, i32 0, i64 0, i64 0, i64 0, i32 0, null, metadata !418, i32 0, i32 0} ; [ DW_TAG_subroutine_type ]
!418 = metadata !{null, metadata !419}
!419 = metadata !{i32 786447, i32 0, metadata !"", i32 0, i32 0, i64 64, i64 64, i64 0, i32 64, metadata !403} ; [ DW_TAG_pointer_type ]
!420 = metadata !{i32 786478, i32 0, metadata !403, metadata !"ap_int_base<33, true>", metadata !"ap_int_base<33, true>", metadata !"", metadata !165, i32 1506, metadata !421, i1 false, i1 false, i32 0, i32 0, null, i32 256, i1 false, null, metadata !425, i32 0, metadata !177, i32 1506} ; [ DW_TAG_subprogram ]
!421 = metadata !{i32 786453, i32 0, metadata !"", i32 0, i32 0, i64 0, i64 0, i64 0, i32 0, null, metadata !422, i32 0, i32 0} ; [ DW_TAG_subroutine_type ]
!422 = metadata !{null, metadata !419, metadata !423}
!423 = metadata !{i32 786448, null, null, null, i32 0, i64 0, i64 0, i64 0, i32 0, metadata !424} ; [ DW_TAG_reference_type ]
!424 = metadata !{i32 786470, null, metadata !"", null, i32 0, i64 0, i64 0, i64 0, i32 0, metadata !403} ; [ DW_TAG_const_type ]
!425 = metadata !{metadata !426, metadata !195}
!426 = metadata !{i32 786480, null, metadata !"_AP_W2", metadata !181, i64 33, null, i32 0, i32 0} ; [ DW_TAG_template_value_parameter ]
!427 = metadata !{i32 786478, i32 0, metadata !403, metadata !"ap_int_base<33, true>", metadata !"ap_int_base<33, true>", metadata !"", metadata !165, i32 1509, metadata !428, i1 false, i1 false, i32 0, i32 0, null, i32 256, i1 false, null, metadata !425, i32 0, metadata !177, i32 1509} ; [ DW_TAG_subprogram ]
!428 = metadata !{i32 786453, i32 0, metadata !"", i32 0, i32 0, i64 0, i64 0, i64 0, i32 0, null, metadata !429, i32 0, i32 0} ; [ DW_TAG_subroutine_type ]
!429 = metadata !{null, metadata !419, metadata !430}
!430 = metadata !{i32 786448, null, null, null, i32 0, i64 0, i64 0, i64 0, i32 0, metadata !431} ; [ DW_TAG_reference_type ]
!431 = metadata !{i32 786470, null, metadata !"", null, i32 0, i64 0, i64 0, i64 0, i32 0, metadata !432} ; [ DW_TAG_const_type ]
!432 = metadata !{i32 786485, null, metadata !"", null, i32 0, i64 0, i64 0, i64 0, i32 0, metadata !403} ; [ DW_TAG_volatile_type ]
!433 = metadata !{i32 786478, i32 0, metadata !403, metadata !"ap_int_base", metadata !"ap_int_base", metadata !"", metadata !165, i32 1516, metadata !434, i1 false, i1 false, i32 0, i32 0, null, i32 384, i1 false, null, null, i32 0, metadata !177, i32 1516} ; [ DW_TAG_subprogram ]
!434 = metadata !{i32 786453, i32 0, metadata !"", i32 0, i32 0, i64 0, i64 0, i64 0, i32 0, null, metadata !435, i32 0, i32 0} ; [ DW_TAG_subroutine_type ]
!435 = metadata !{null, metadata !419, metadata !183}
!436 = metadata !{i32 786478, i32 0, metadata !403, metadata !"ap_int_base", metadata !"ap_int_base", metadata !"", metadata !165, i32 1517, metadata !437, i1 false, i1 false, i32 0, i32 0, null, i32 384, i1 false, null, null, i32 0, metadata !177, i32 1517} ; [ DW_TAG_subprogram ]
!437 = metadata !{i32 786453, i32 0, metadata !"", i32 0, i32 0, i64 0, i64 0, i64 0, i32 0, null, metadata !438, i32 0, i32 0} ; [ DW_TAG_subroutine_type ]
!438 = metadata !{null, metadata !419, metadata !208}
!439 = metadata !{i32 786478, i32 0, metadata !403, metadata !"ap_int_base", metadata !"ap_int_base", metadata !"", metadata !165, i32 1518, metadata !440, i1 false, i1 false, i32 0, i32 0, null, i32 384, i1 false, null, null, i32 0, metadata !177, i32 1518} ; [ DW_TAG_subprogram ]
!440 = metadata !{i32 786453, i32 0, metadata !"", i32 0, i32 0, i64 0, i64 0, i64 0, i32 0, null, metadata !441, i32 0, i32 0} ; [ DW_TAG_subroutine_type ]
!441 = metadata !{null, metadata !419, metadata !212}
!442 = metadata !{i32 786478, i32 0, metadata !403, metadata !"ap_int_base", metadata !"ap_int_base", metadata !"", metadata !165, i32 1519, metadata !443, i1 false, i1 false, i32 0, i32 0, null, i32 384, i1 false, null, null, i32 0, metadata !177, i32 1519} ; [ DW_TAG_subprogram ]
!443 = metadata !{i32 786453, i32 0, metadata !"", i32 0, i32 0, i64 0, i64 0, i64 0, i32 0, null, metadata !444, i32 0, i32 0} ; [ DW_TAG_subroutine_type ]
!444 = metadata !{null, metadata !419, metadata !216}
!445 = metadata !{i32 786478, i32 0, metadata !403, metadata !"ap_int_base", metadata !"ap_int_base", metadata !"", metadata !165, i32 1520, metadata !446, i1 false, i1 false, i32 0, i32 0, null, i32 384, i1 false, null, null, i32 0, metadata !177, i32 1520} ; [ DW_TAG_subprogram ]
!446 = metadata !{i32 786453, i32 0, metadata !"", i32 0, i32 0, i64 0, i64 0, i64 0, i32 0, null, metadata !447, i32 0, i32 0} ; [ DW_TAG_subroutine_type ]
!447 = metadata !{null, metadata !419, metadata !220}
!448 = metadata !{i32 786478, i32 0, metadata !403, metadata !"ap_int_base", metadata !"ap_int_base", metadata !"", metadata !165, i32 1521, metadata !449, i1 false, i1 false, i32 0, i32 0, null, i32 384, i1 false, null, null, i32 0, metadata !177, i32 1521} ; [ DW_TAG_subprogram ]
!449 = metadata !{i32 786453, i32 0, metadata !"", i32 0, i32 0, i64 0, i64 0, i64 0, i32 0, null, metadata !450, i32 0, i32 0} ; [ DW_TAG_subroutine_type ]
!450 = metadata !{null, metadata !419, metadata !181}
!451 = metadata !{i32 786478, i32 0, metadata !403, metadata !"ap_int_base", metadata !"ap_int_base", metadata !"", metadata !165, i32 1522, metadata !452, i1 false, i1 false, i32 0, i32 0, null, i32 384, i1 false, null, null, i32 0, metadata !177, i32 1522} ; [ DW_TAG_subprogram ]
!452 = metadata !{i32 786453, i32 0, metadata !"", i32 0, i32 0, i64 0, i64 0, i64 0, i32 0, null, metadata !453, i32 0, i32 0} ; [ DW_TAG_subroutine_type ]
!453 = metadata !{null, metadata !419, metadata !227}
!454 = metadata !{i32 786478, i32 0, metadata !403, metadata !"ap_int_base", metadata !"ap_int_base", metadata !"", metadata !165, i32 1523, metadata !455, i1 false, i1 false, i32 0, i32 0, null, i32 384, i1 false, null, null, i32 0, metadata !177, i32 1523} ; [ DW_TAG_subprogram ]
!455 = metadata !{i32 786453, i32 0, metadata !"", i32 0, i32 0, i64 0, i64 0, i64 0, i32 0, null, metadata !456, i32 0, i32 0} ; [ DW_TAG_subroutine_type ]
!456 = metadata !{null, metadata !419, metadata !231}
!457 = metadata !{i32 786478, i32 0, metadata !403, metadata !"ap_int_base", metadata !"ap_int_base", metadata !"", metadata !165, i32 1524, metadata !458, i1 false, i1 false, i32 0, i32 0, null, i32 384, i1 false, null, null, i32 0, metadata !177, i32 1524} ; [ DW_TAG_subprogram ]
!458 = metadata !{i32 786453, i32 0, metadata !"", i32 0, i32 0, i64 0, i64 0, i64 0, i32 0, null, metadata !459, i32 0, i32 0} ; [ DW_TAG_subroutine_type ]
!459 = metadata !{null, metadata !419, metadata !235}
!460 = metadata !{i32 786478, i32 0, metadata !403, metadata !"ap_int_base", metadata !"ap_int_base", metadata !"", metadata !165, i32 1525, metadata !461, i1 false, i1 false, i32 0, i32 0, null, i32 384, i1 false, null, null, i32 0, metadata !177, i32 1525} ; [ DW_TAG_subprogram ]
!461 = metadata !{i32 786453, i32 0, metadata !"", i32 0, i32 0, i64 0, i64 0, i64 0, i32 0, null, metadata !462, i32 0, i32 0} ; [ DW_TAG_subroutine_type ]
!462 = metadata !{null, metadata !419, metadata !239}
!463 = metadata !{i32 786478, i32 0, metadata !403, metadata !"ap_int_base", metadata !"ap_int_base", metadata !"", metadata !165, i32 1526, metadata !464, i1 false, i1 false, i32 0, i32 0, null, i32 384, i1 false, null, null, i32 0, metadata !177, i32 1526} ; [ DW_TAG_subprogram ]
!464 = metadata !{i32 786453, i32 0, metadata !"", i32 0, i32 0, i64 0, i64 0, i64 0, i32 0, null, metadata !465, i32 0, i32 0} ; [ DW_TAG_subroutine_type ]
!465 = metadata !{null, metadata !419, metadata !244}
!466 = metadata !{i32 786478, i32 0, metadata !403, metadata !"ap_int_base", metadata !"ap_int_base", metadata !"", metadata !165, i32 1527, metadata !467, i1 false, i1 false, i32 0, i32 0, null, i32 384, i1 false, null, null, i32 0, metadata !177, i32 1527} ; [ DW_TAG_subprogram ]
!467 = metadata !{i32 786453, i32 0, metadata !"", i32 0, i32 0, i64 0, i64 0, i64 0, i32 0, null, metadata !468, i32 0, i32 0} ; [ DW_TAG_subroutine_type ]
!468 = metadata !{null, metadata !419, metadata !249}
!469 = metadata !{i32 786478, i32 0, metadata !403, metadata !"ap_int_base", metadata !"ap_int_base", metadata !"", metadata !165, i32 1528, metadata !470, i1 false, i1 false, i32 0, i32 0, null, i32 384, i1 false, null, null, i32 0, metadata !177, i32 1528} ; [ DW_TAG_subprogram ]
!470 = metadata !{i32 786453, i32 0, metadata !"", i32 0, i32 0, i64 0, i64 0, i64 0, i32 0, null, metadata !471, i32 0, i32 0} ; [ DW_TAG_subroutine_type ]
!471 = metadata !{null, metadata !419, metadata !254}
!472 = metadata !{i32 786478, i32 0, metadata !403, metadata !"ap_int_base", metadata !"ap_int_base", metadata !"", metadata !165, i32 1529, metadata !473, i1 false, i1 false, i32 0, i32 0, null, i32 384, i1 false, null, null, i32 0, metadata !177, i32 1529} ; [ DW_TAG_subprogram ]
!473 = metadata !{i32 786453, i32 0, metadata !"", i32 0, i32 0, i64 0, i64 0, i64 0, i32 0, null, metadata !474, i32 0, i32 0} ; [ DW_TAG_subroutine_type ]
!474 = metadata !{null, metadata !419, metadata !258}
!475 = metadata !{i32 786478, i32 0, metadata !403, metadata !"ap_int_base", metadata !"ap_int_base", metadata !"", metadata !165, i32 1556, metadata !476, i1 false, i1 false, i32 0, i32 0, null, i32 256, i1 false, null, null, i32 0, metadata !177, i32 1556} ; [ DW_TAG_subprogram ]
!476 = metadata !{i32 786453, i32 0, metadata !"", i32 0, i32 0, i64 0, i64 0, i64 0, i32 0, null, metadata !477, i32 0, i32 0} ; [ DW_TAG_subroutine_type ]
!477 = metadata !{null, metadata !419, metadata !262}
!478 = metadata !{i32 786478, i32 0, metadata !403, metadata !"ap_int_base", metadata !"ap_int_base", metadata !"", metadata !165, i32 1563, metadata !479, i1 false, i1 false, i32 0, i32 0, null, i32 256, i1 false, null, null, i32 0, metadata !177, i32 1563} ; [ DW_TAG_subprogram ]
!479 = metadata !{i32 786453, i32 0, metadata !"", i32 0, i32 0, i64 0, i64 0, i64 0, i32 0, null, metadata !480, i32 0, i32 0} ; [ DW_TAG_subroutine_type ]
!480 = metadata !{null, metadata !419, metadata !262, metadata !208}
!481 = metadata !{i32 786478, i32 0, metadata !403, metadata !"read", metadata !"read", metadata !"_ZNV11ap_int_baseILi33ELb1ELb1EE4readEv", metadata !165, i32 1584, metadata !482, i1 false, i1 false, i32 0, i32 0, null, i32 256, i1 false, null, null, i32 0, metadata !177, i32 1584} ; [ DW_TAG_subprogram ]
!482 = metadata !{i32 786453, i32 0, metadata !"", i32 0, i32 0, i64 0, i64 0, i64 0, i32 0, null, metadata !483, i32 0, i32 0} ; [ DW_TAG_subroutine_type ]
!483 = metadata !{metadata !403, metadata !484}
!484 = metadata !{i32 786447, i32 0, metadata !"", i32 0, i32 0, i64 64, i64 64, i64 0, i32 64, metadata !432} ; [ DW_TAG_pointer_type ]
!485 = metadata !{i32 786478, i32 0, metadata !403, metadata !"write", metadata !"write", metadata !"_ZNV11ap_int_baseILi33ELb1ELb1EE5writeERKS0_", metadata !165, i32 1590, metadata !486, i1 false, i1 false, i32 0, i32 0, null, i32 256, i1 false, null, null, i32 0, metadata !177, i32 1590} ; [ DW_TAG_subprogram ]
!486 = metadata !{i32 786453, i32 0, metadata !"", i32 0, i32 0, i64 0, i64 0, i64 0, i32 0, null, metadata !487, i32 0, i32 0} ; [ DW_TAG_subroutine_type ]
!487 = metadata !{null, metadata !484, metadata !423}
!488 = metadata !{i32 786478, i32 0, metadata !403, metadata !"operator=", metadata !"operator=", metadata !"_ZNV11ap_int_baseILi33ELb1ELb1EEaSERVKS0_", metadata !165, i32 1602, metadata !489, i1 false, i1 false, i32 0, i32 0, null, i32 256, i1 false, null, null, i32 0, metadata !177, i32 1602} ; [ DW_TAG_subprogram ]
!489 = metadata !{i32 786453, i32 0, metadata !"", i32 0, i32 0, i64 0, i64 0, i64 0, i32 0, null, metadata !490, i32 0, i32 0} ; [ DW_TAG_subroutine_type ]
!490 = metadata !{null, metadata !484, metadata !430}
!491 = metadata !{i32 786478, i32 0, metadata !403, metadata !"operator=", metadata !"operator=", metadata !"_ZNV11ap_int_baseILi33ELb1ELb1EEaSERKS0_", metadata !165, i32 1611, metadata !486, i1 false, i1 false, i32 0, i32 0, null, i32 256, i1 false, null, null, i32 0, metadata !177, i32 1611} ; [ DW_TAG_subprogram ]
!492 = metadata !{i32 786478, i32 0, metadata !403, metadata !"operator=", metadata !"operator=", metadata !"_ZN11ap_int_baseILi33ELb1ELb1EEaSERVKS0_", metadata !165, i32 1634, metadata !493, i1 false, i1 false, i32 0, i32 0, null, i32 256, i1 false, null, null, i32 0, metadata !177, i32 1634} ; [ DW_TAG_subprogram ]
!493 = metadata !{i32 786453, i32 0, metadata !"", i32 0, i32 0, i64 0, i64 0, i64 0, i32 0, null, metadata !494, i32 0, i32 0} ; [ DW_TAG_subroutine_type ]
!494 = metadata !{metadata !495, metadata !419, metadata !430}
!495 = metadata !{i32 786448, null, null, null, i32 0, i64 0, i64 0, i64 0, i32 0, metadata !403} ; [ DW_TAG_reference_type ]
!496 = metadata !{i32 786478, i32 0, metadata !403, metadata !"operator=", metadata !"operator=", metadata !"_ZN11ap_int_baseILi33ELb1ELb1EEaSERKS0_", metadata !165, i32 1639, metadata !497, i1 false, i1 false, i32 0, i32 0, null, i32 256, i1 false, null, null, i32 0, metadata !177, i32 1639} ; [ DW_TAG_subprogram ]
!497 = metadata !{i32 786453, i32 0, metadata !"", i32 0, i32 0, i64 0, i64 0, i64 0, i32 0, null, metadata !498, i32 0, i32 0} ; [ DW_TAG_subroutine_type ]
!498 = metadata !{metadata !495, metadata !419, metadata !423}
!499 = metadata !{i32 786478, i32 0, metadata !403, metadata !"operator=", metadata !"operator=", metadata !"_ZN11ap_int_baseILi33ELb1ELb1EEaSEPKc", metadata !165, i32 1643, metadata !500, i1 false, i1 false, i32 0, i32 0, null, i32 256, i1 false, null, null, i32 0, metadata !177, i32 1643} ; [ DW_TAG_subprogram ]
!500 = metadata !{i32 786453, i32 0, metadata !"", i32 0, i32 0, i64 0, i64 0, i64 0, i32 0, null, metadata !501, i32 0, i32 0} ; [ DW_TAG_subroutine_type ]
!501 = metadata !{metadata !495, metadata !419, metadata !262}
!502 = metadata !{i32 786478, i32 0, metadata !403, metadata !"set", metadata !"set", metadata !"_ZN11ap_int_baseILi33ELb1ELb1EE3setEPKca", metadata !165, i32 1651, metadata !503, i1 false, i1 false, i32 0, i32 0, null, i32 256, i1 false, null, null, i32 0, metadata !177, i32 1651} ; [ DW_TAG_subprogram ]
!503 = metadata !{i32 786453, i32 0, metadata !"", i32 0, i32 0, i64 0, i64 0, i64 0, i32 0, null, metadata !504, i32 0, i32 0} ; [ DW_TAG_subroutine_type ]
!504 = metadata !{metadata !495, metadata !419, metadata !262, metadata !208}
!505 = metadata !{i32 786478, i32 0, metadata !403, metadata !"operator=", metadata !"operator=", metadata !"_ZN11ap_int_baseILi33ELb1ELb1EEaSEa", metadata !165, i32 1665, metadata !506, i1 false, i1 false, i32 0, i32 0, null, i32 256, i1 false, null, null, i32 0, metadata !177, i32 1665} ; [ DW_TAG_subprogram ]
!506 = metadata !{i32 786453, i32 0, metadata !"", i32 0, i32 0, i64 0, i64 0, i64 0, i32 0, null, metadata !507, i32 0, i32 0} ; [ DW_TAG_subroutine_type ]
!507 = metadata !{metadata !495, metadata !419, metadata !208}
!508 = metadata !{i32 786478, i32 0, metadata !403, metadata !"operator=", metadata !"operator=", metadata !"_ZN11ap_int_baseILi33ELb1ELb1EEaSEh", metadata !165, i32 1666, metadata !509, i1 false, i1 false, i32 0, i32 0, null, i32 256, i1 false, null, null, i32 0, metadata !177, i32 1666} ; [ DW_TAG_subprogram ]
!509 = metadata !{i32 786453, i32 0, metadata !"", i32 0, i32 0, i64 0, i64 0, i64 0, i32 0, null, metadata !510, i32 0, i32 0} ; [ DW_TAG_subroutine_type ]
!510 = metadata !{metadata !495, metadata !419, metadata !212}
!511 = metadata !{i32 786478, i32 0, metadata !403, metadata !"operator=", metadata !"operator=", metadata !"_ZN11ap_int_baseILi33ELb1ELb1EEaSEs", metadata !165, i32 1667, metadata !512, i1 false, i1 false, i32 0, i32 0, null, i32 256, i1 false, null, null, i32 0, metadata !177, i32 1667} ; [ DW_TAG_subprogram ]
!512 = metadata !{i32 786453, i32 0, metadata !"", i32 0, i32 0, i64 0, i64 0, i64 0, i32 0, null, metadata !513, i32 0, i32 0} ; [ DW_TAG_subroutine_type ]
!513 = metadata !{metadata !495, metadata !419, metadata !216}
!514 = metadata !{i32 786478, i32 0, metadata !403, metadata !"operator=", metadata !"operator=", metadata !"_ZN11ap_int_baseILi33ELb1ELb1EEaSEt", metadata !165, i32 1668, metadata !515, i1 false, i1 false, i32 0, i32 0, null, i32 256, i1 false, null, null, i32 0, metadata !177, i32 1668} ; [ DW_TAG_subprogram ]
!515 = metadata !{i32 786453, i32 0, metadata !"", i32 0, i32 0, i64 0, i64 0, i64 0, i32 0, null, metadata !516, i32 0, i32 0} ; [ DW_TAG_subroutine_type ]
!516 = metadata !{metadata !495, metadata !419, metadata !220}
!517 = metadata !{i32 786478, i32 0, metadata !403, metadata !"operator=", metadata !"operator=", metadata !"_ZN11ap_int_baseILi33ELb1ELb1EEaSEi", metadata !165, i32 1669, metadata !518, i1 false, i1 false, i32 0, i32 0, null, i32 256, i1 false, null, null, i32 0, metadata !177, i32 1669} ; [ DW_TAG_subprogram ]
!518 = metadata !{i32 786453, i32 0, metadata !"", i32 0, i32 0, i64 0, i64 0, i64 0, i32 0, null, metadata !519, i32 0, i32 0} ; [ DW_TAG_subroutine_type ]
!519 = metadata !{metadata !495, metadata !419, metadata !181}
!520 = metadata !{i32 786478, i32 0, metadata !403, metadata !"operator=", metadata !"operator=", metadata !"_ZN11ap_int_baseILi33ELb1ELb1EEaSEj", metadata !165, i32 1670, metadata !521, i1 false, i1 false, i32 0, i32 0, null, i32 256, i1 false, null, null, i32 0, metadata !177, i32 1670} ; [ DW_TAG_subprogram ]
!521 = metadata !{i32 786453, i32 0, metadata !"", i32 0, i32 0, i64 0, i64 0, i64 0, i32 0, null, metadata !522, i32 0, i32 0} ; [ DW_TAG_subroutine_type ]
!522 = metadata !{metadata !495, metadata !419, metadata !227}
!523 = metadata !{i32 786478, i32 0, metadata !403, metadata !"operator=", metadata !"operator=", metadata !"_ZN11ap_int_baseILi33ELb1ELb1EEaSEx", metadata !165, i32 1671, metadata !524, i1 false, i1 false, i32 0, i32 0, null, i32 256, i1 false, null, null, i32 0, metadata !177, i32 1671} ; [ DW_TAG_subprogram ]
!524 = metadata !{i32 786453, i32 0, metadata !"", i32 0, i32 0, i64 0, i64 0, i64 0, i32 0, null, metadata !525, i32 0, i32 0} ; [ DW_TAG_subroutine_type ]
!525 = metadata !{metadata !495, metadata !419, metadata !239}
!526 = metadata !{i32 786478, i32 0, metadata !403, metadata !"operator=", metadata !"operator=", metadata !"_ZN11ap_int_baseILi33ELb1ELb1EEaSEy", metadata !165, i32 1672, metadata !527, i1 false, i1 false, i32 0, i32 0, null, i32 256, i1 false, null, null, i32 0, metadata !177, i32 1672} ; [ DW_TAG_subprogram ]
!527 = metadata !{i32 786453, i32 0, metadata !"", i32 0, i32 0, i64 0, i64 0, i64 0, i32 0, null, metadata !528, i32 0, i32 0} ; [ DW_TAG_subroutine_type ]
!528 = metadata !{metadata !495, metadata !419, metadata !244}
!529 = metadata !{i32 786478, i32 0, metadata !403, metadata !"operator long long", metadata !"operator long long", metadata !"_ZNK11ap_int_baseILi33ELb1ELb1EEcvxEv", metadata !165, i32 1710, metadata !530, i1 false, i1 false, i32 0, i32 0, null, i32 256, i1 false, null, null, i32 0, metadata !177, i32 1710} ; [ DW_TAG_subprogram ]
!530 = metadata !{i32 786453, i32 0, metadata !"", i32 0, i32 0, i64 0, i64 0, i64 0, i32 0, null, metadata !531, i32 0, i32 0} ; [ DW_TAG_subroutine_type ]
!531 = metadata !{metadata !532, metadata !537}
!532 = metadata !{i32 786454, metadata !403, metadata !"RetType", metadata !165, i32 1458, i64 0, i64 0, i64 0, i32 0, metadata !533} ; [ DW_TAG_typedef ]
!533 = metadata !{i32 786454, metadata !534, metadata !"Type", metadata !165, i32 1415, i64 0, i64 0, i64 0, i32 0, metadata !239} ; [ DW_TAG_typedef ]
!534 = metadata !{i32 786434, null, metadata !"retval<5, true>", metadata !165, i32 1414, i64 8, i64 8, i32 0, i32 0, null, metadata !322, i32 0, null, metadata !535} ; [ DW_TAG_class_type ]
!535 = metadata !{metadata !536, metadata !182}
!536 = metadata !{i32 786480, null, metadata !"_AP_N", metadata !181, i64 5, null, i32 0, i32 0} ; [ DW_TAG_template_value_parameter ]
!537 = metadata !{i32 786447, i32 0, metadata !"", i32 0, i32 0, i64 64, i64 64, i64 0, i32 64, metadata !424} ; [ DW_TAG_pointer_type ]
!538 = metadata !{i32 786478, i32 0, metadata !403, metadata !"to_bool", metadata !"to_bool", metadata !"_ZNK11ap_int_baseILi33ELb1ELb1EE7to_boolEv", metadata !165, i32 1716, metadata !539, i1 false, i1 false, i32 0, i32 0, null, i32 256, i1 false, null, null, i32 0, metadata !177, i32 1716} ; [ DW_TAG_subprogram ]
!539 = metadata !{i32 786453, i32 0, metadata !"", i32 0, i32 0, i64 0, i64 0, i64 0, i32 0, null, metadata !540, i32 0, i32 0} ; [ DW_TAG_subroutine_type ]
!540 = metadata !{metadata !183, metadata !537}
!541 = metadata !{i32 786478, i32 0, metadata !403, metadata !"to_uchar", metadata !"to_uchar", metadata !"_ZNK11ap_int_baseILi33ELb1ELb1EE8to_ucharEv", metadata !165, i32 1717, metadata !542, i1 false, i1 false, i32 0, i32 0, null, i32 256, i1 false, null, null, i32 0, metadata !177, i32 1717} ; [ DW_TAG_subprogram ]
!542 = metadata !{i32 786453, i32 0, metadata !"", i32 0, i32 0, i64 0, i64 0, i64 0, i32 0, null, metadata !543, i32 0, i32 0} ; [ DW_TAG_subroutine_type ]
!543 = metadata !{metadata !212, metadata !537}
!544 = metadata !{i32 786478, i32 0, metadata !403, metadata !"to_char", metadata !"to_char", metadata !"_ZNK11ap_int_baseILi33ELb1ELb1EE7to_charEv", metadata !165, i32 1718, metadata !545, i1 false, i1 false, i32 0, i32 0, null, i32 256, i1 false, null, null, i32 0, metadata !177, i32 1718} ; [ DW_TAG_subprogram ]
!545 = metadata !{i32 786453, i32 0, metadata !"", i32 0, i32 0, i64 0, i64 0, i64 0, i32 0, null, metadata !546, i32 0, i32 0} ; [ DW_TAG_subroutine_type ]
!546 = metadata !{metadata !208, metadata !537}
!547 = metadata !{i32 786478, i32 0, metadata !403, metadata !"to_ushort", metadata !"to_ushort", metadata !"_ZNK11ap_int_baseILi33ELb1ELb1EE9to_ushortEv", metadata !165, i32 1719, metadata !548, i1 false, i1 false, i32 0, i32 0, null, i32 256, i1 false, null, null, i32 0, metadata !177, i32 1719} ; [ DW_TAG_subprogram ]
!548 = metadata !{i32 786453, i32 0, metadata !"", i32 0, i32 0, i64 0, i64 0, i64 0, i32 0, null, metadata !549, i32 0, i32 0} ; [ DW_TAG_subroutine_type ]
!549 = metadata !{metadata !220, metadata !537}
!550 = metadata !{i32 786478, i32 0, metadata !403, metadata !"to_short", metadata !"to_short", metadata !"_ZNK11ap_int_baseILi33ELb1ELb1EE8to_shortEv", metadata !165, i32 1720, metadata !551, i1 false, i1 false, i32 0, i32 0, null, i32 256, i1 false, null, null, i32 0, metadata !177, i32 1720} ; [ DW_TAG_subprogram ]
!551 = metadata !{i32 786453, i32 0, metadata !"", i32 0, i32 0, i64 0, i64 0, i64 0, i32 0, null, metadata !552, i32 0, i32 0} ; [ DW_TAG_subroutine_type ]
!552 = metadata !{metadata !216, metadata !537}
!553 = metadata !{i32 786478, i32 0, metadata !403, metadata !"to_int", metadata !"to_int", metadata !"_ZNK11ap_int_baseILi33ELb1ELb1EE6to_intEv", metadata !165, i32 1721, metadata !554, i1 false, i1 false, i32 0, i32 0, null, i32 256, i1 false, null, null, i32 0, metadata !177, i32 1721} ; [ DW_TAG_subprogram ]
!554 = metadata !{i32 786453, i32 0, metadata !"", i32 0, i32 0, i64 0, i64 0, i64 0, i32 0, null, metadata !555, i32 0, i32 0} ; [ DW_TAG_subroutine_type ]
!555 = metadata !{metadata !181, metadata !537}
!556 = metadata !{i32 786478, i32 0, metadata !403, metadata !"to_uint", metadata !"to_uint", metadata !"_ZNK11ap_int_baseILi33ELb1ELb1EE7to_uintEv", metadata !165, i32 1722, metadata !557, i1 false, i1 false, i32 0, i32 0, null, i32 256, i1 false, null, null, i32 0, metadata !177, i32 1722} ; [ DW_TAG_subprogram ]
!557 = metadata !{i32 786453, i32 0, metadata !"", i32 0, i32 0, i64 0, i64 0, i64 0, i32 0, null, metadata !558, i32 0, i32 0} ; [ DW_TAG_subroutine_type ]
!558 = metadata !{metadata !227, metadata !537}
!559 = metadata !{i32 786478, i32 0, metadata !403, metadata !"to_long", metadata !"to_long", metadata !"_ZNK11ap_int_baseILi33ELb1ELb1EE7to_longEv", metadata !165, i32 1723, metadata !560, i1 false, i1 false, i32 0, i32 0, null, i32 256, i1 false, null, null, i32 0, metadata !177, i32 1723} ; [ DW_TAG_subprogram ]
!560 = metadata !{i32 786453, i32 0, metadata !"", i32 0, i32 0, i64 0, i64 0, i64 0, i32 0, null, metadata !561, i32 0, i32 0} ; [ DW_TAG_subroutine_type ]
!561 = metadata !{metadata !231, metadata !537}
!562 = metadata !{i32 786478, i32 0, metadata !403, metadata !"to_ulong", metadata !"to_ulong", metadata !"_ZNK11ap_int_baseILi33ELb1ELb1EE8to_ulongEv", metadata !165, i32 1724, metadata !563, i1 false, i1 false, i32 0, i32 0, null, i32 256, i1 false, null, null, i32 0, metadata !177, i32 1724} ; [ DW_TAG_subprogram ]
!563 = metadata !{i32 786453, i32 0, metadata !"", i32 0, i32 0, i64 0, i64 0, i64 0, i32 0, null, metadata !564, i32 0, i32 0} ; [ DW_TAG_subroutine_type ]
!564 = metadata !{metadata !235, metadata !537}
!565 = metadata !{i32 786478, i32 0, metadata !403, metadata !"to_int64", metadata !"to_int64", metadata !"_ZNK11ap_int_baseILi33ELb1ELb1EE8to_int64Ev", metadata !165, i32 1725, metadata !566, i1 false, i1 false, i32 0, i32 0, null, i32 256, i1 false, null, null, i32 0, metadata !177, i32 1725} ; [ DW_TAG_subprogram ]
!566 = metadata !{i32 786453, i32 0, metadata !"", i32 0, i32 0, i64 0, i64 0, i64 0, i32 0, null, metadata !567, i32 0, i32 0} ; [ DW_TAG_subroutine_type ]
!567 = metadata !{metadata !239, metadata !537}
!568 = metadata !{i32 786478, i32 0, metadata !403, metadata !"to_uint64", metadata !"to_uint64", metadata !"_ZNK11ap_int_baseILi33ELb1ELb1EE9to_uint64Ev", metadata !165, i32 1726, metadata !569, i1 false, i1 false, i32 0, i32 0, null, i32 256, i1 false, null, null, i32 0, metadata !177, i32 1726} ; [ DW_TAG_subprogram ]
!569 = metadata !{i32 786453, i32 0, metadata !"", i32 0, i32 0, i64 0, i64 0, i64 0, i32 0, null, metadata !570, i32 0, i32 0} ; [ DW_TAG_subroutine_type ]
!570 = metadata !{metadata !244, metadata !537}
!571 = metadata !{i32 786478, i32 0, metadata !403, metadata !"to_double", metadata !"to_double", metadata !"_ZNK11ap_int_baseILi33ELb1ELb1EE9to_doubleEv", metadata !165, i32 1727, metadata !572, i1 false, i1 false, i32 0, i32 0, null, i32 256, i1 false, null, null, i32 0, metadata !177, i32 1727} ; [ DW_TAG_subprogram ]
!572 = metadata !{i32 786453, i32 0, metadata !"", i32 0, i32 0, i64 0, i64 0, i64 0, i32 0, null, metadata !573, i32 0, i32 0} ; [ DW_TAG_subroutine_type ]
!573 = metadata !{metadata !258, metadata !537}
!574 = metadata !{i32 786478, i32 0, metadata !403, metadata !"length", metadata !"length", metadata !"_ZNK11ap_int_baseILi33ELb1ELb1EE6lengthEv", metadata !165, i32 1741, metadata !554, i1 false, i1 false, i32 0, i32 0, null, i32 256, i1 false, null, null, i32 0, metadata !177, i32 1741} ; [ DW_TAG_subprogram ]
!575 = metadata !{i32 786478, i32 0, metadata !403, metadata !"length", metadata !"length", metadata !"_ZNVK11ap_int_baseILi33ELb1ELb1EE6lengthEv", metadata !165, i32 1742, metadata !576, i1 false, i1 false, i32 0, i32 0, null, i32 256, i1 false, null, null, i32 0, metadata !177, i32 1742} ; [ DW_TAG_subprogram ]
!576 = metadata !{i32 786453, i32 0, metadata !"", i32 0, i32 0, i64 0, i64 0, i64 0, i32 0, null, metadata !577, i32 0, i32 0} ; [ DW_TAG_subroutine_type ]
!577 = metadata !{metadata !181, metadata !578}
!578 = metadata !{i32 786447, i32 0, metadata !"", i32 0, i32 0, i64 64, i64 64, i64 0, i32 64, metadata !431} ; [ DW_TAG_pointer_type ]
!579 = metadata !{i32 786478, i32 0, metadata !403, metadata !"reverse", metadata !"reverse", metadata !"_ZN11ap_int_baseILi33ELb1ELb1EE7reverseEv", metadata !165, i32 1747, metadata !580, i1 false, i1 false, i32 0, i32 0, null, i32 256, i1 false, null, null, i32 0, metadata !177, i32 1747} ; [ DW_TAG_subprogram ]
!580 = metadata !{i32 786453, i32 0, metadata !"", i32 0, i32 0, i64 0, i64 0, i64 0, i32 0, null, metadata !581, i32 0, i32 0} ; [ DW_TAG_subroutine_type ]
!581 = metadata !{metadata !495, metadata !419}
!582 = metadata !{i32 786478, i32 0, metadata !403, metadata !"iszero", metadata !"iszero", metadata !"_ZNK11ap_int_baseILi33ELb1ELb1EE6iszeroEv", metadata !165, i32 1753, metadata !539, i1 false, i1 false, i32 0, i32 0, null, i32 256, i1 false, null, null, i32 0, metadata !177, i32 1753} ; [ DW_TAG_subprogram ]
!583 = metadata !{i32 786478, i32 0, metadata !403, metadata !"is_zero", metadata !"is_zero", metadata !"_ZNK11ap_int_baseILi33ELb1ELb1EE7is_zeroEv", metadata !165, i32 1758, metadata !539, i1 false, i1 false, i32 0, i32 0, null, i32 256, i1 false, null, null, i32 0, metadata !177, i32 1758} ; [ DW_TAG_subprogram ]
!584 = metadata !{i32 786478, i32 0, metadata !403, metadata !"sign", metadata !"sign", metadata !"_ZNK11ap_int_baseILi33ELb1ELb1EE4signEv", metadata !165, i32 1763, metadata !539, i1 false, i1 false, i32 0, i32 0, null, i32 256, i1 false, null, null, i32 0, metadata !177, i32 1763} ; [ DW_TAG_subprogram ]
!585 = metadata !{i32 786478, i32 0, metadata !403, metadata !"clear", metadata !"clear", metadata !"_ZN11ap_int_baseILi33ELb1ELb1EE5clearEi", metadata !165, i32 1771, metadata !449, i1 false, i1 false, i32 0, i32 0, null, i32 256, i1 false, null, null, i32 0, metadata !177, i32 1771} ; [ DW_TAG_subprogram ]
!586 = metadata !{i32 786478, i32 0, metadata !403, metadata !"invert", metadata !"invert", metadata !"_ZN11ap_int_baseILi33ELb1ELb1EE6invertEi", metadata !165, i32 1777, metadata !449, i1 false, i1 false, i32 0, i32 0, null, i32 256, i1 false, null, null, i32 0, metadata !177, i32 1777} ; [ DW_TAG_subprogram ]
!587 = metadata !{i32 786478, i32 0, metadata !403, metadata !"test", metadata !"test", metadata !"_ZNK11ap_int_baseILi33ELb1ELb1EE4testEi", metadata !165, i32 1785, metadata !588, i1 false, i1 false, i32 0, i32 0, null, i32 256, i1 false, null, null, i32 0, metadata !177, i32 1785} ; [ DW_TAG_subprogram ]
!588 = metadata !{i32 786453, i32 0, metadata !"", i32 0, i32 0, i64 0, i64 0, i64 0, i32 0, null, metadata !589, i32 0, i32 0} ; [ DW_TAG_subroutine_type ]
!589 = metadata !{metadata !183, metadata !537, metadata !181}
!590 = metadata !{i32 786478, i32 0, metadata !403, metadata !"set", metadata !"set", metadata !"_ZN11ap_int_baseILi33ELb1ELb1EE3setEi", metadata !165, i32 1791, metadata !449, i1 false, i1 false, i32 0, i32 0, null, i32 256, i1 false, null, null, i32 0, metadata !177, i32 1791} ; [ DW_TAG_subprogram ]
!591 = metadata !{i32 786478, i32 0, metadata !403, metadata !"set", metadata !"set", metadata !"_ZN11ap_int_baseILi33ELb1ELb1EE3setEib", metadata !165, i32 1797, metadata !592, i1 false, i1 false, i32 0, i32 0, null, i32 256, i1 false, null, null, i32 0, metadata !177, i32 1797} ; [ DW_TAG_subprogram ]
!592 = metadata !{i32 786453, i32 0, metadata !"", i32 0, i32 0, i64 0, i64 0, i64 0, i32 0, null, metadata !593, i32 0, i32 0} ; [ DW_TAG_subroutine_type ]
!593 = metadata !{null, metadata !419, metadata !181, metadata !183}
!594 = metadata !{i32 786478, i32 0, metadata !403, metadata !"lrotate", metadata !"lrotate", metadata !"_ZN11ap_int_baseILi33ELb1ELb1EE7lrotateEi", metadata !165, i32 1804, metadata !449, i1 false, i1 false, i32 0, i32 0, null, i32 256, i1 false, null, null, i32 0, metadata !177, i32 1804} ; [ DW_TAG_subprogram ]
!595 = metadata !{i32 786478, i32 0, metadata !403, metadata !"rrotate", metadata !"rrotate", metadata !"_ZN11ap_int_baseILi33ELb1ELb1EE7rrotateEi", metadata !165, i32 1813, metadata !449, i1 false, i1 false, i32 0, i32 0, null, i32 256, i1 false, null, null, i32 0, metadata !177, i32 1813} ; [ DW_TAG_subprogram ]
!596 = metadata !{i32 786478, i32 0, metadata !403, metadata !"set_bit", metadata !"set_bit", metadata !"_ZN11ap_int_baseILi33ELb1ELb1EE7set_bitEib", metadata !165, i32 1821, metadata !592, i1 false, i1 false, i32 0, i32 0, null, i32 256, i1 false, null, null, i32 0, metadata !177, i32 1821} ; [ DW_TAG_subprogram ]
!597 = metadata !{i32 786478, i32 0, metadata !403, metadata !"get_bit", metadata !"get_bit", metadata !"_ZNK11ap_int_baseILi33ELb1ELb1EE7get_bitEi", metadata !165, i32 1826, metadata !588, i1 false, i1 false, i32 0, i32 0, null, i32 256, i1 false, null, null, i32 0, metadata !177, i32 1826} ; [ DW_TAG_subprogram ]
!598 = metadata !{i32 786478, i32 0, metadata !403, metadata !"b_not", metadata !"b_not", metadata !"_ZN11ap_int_baseILi33ELb1ELb1EE5b_notEv", metadata !165, i32 1831, metadata !417, i1 false, i1 false, i32 0, i32 0, null, i32 256, i1 false, null, null, i32 0, metadata !177, i32 1831} ; [ DW_TAG_subprogram ]
!599 = metadata !{i32 786478, i32 0, metadata !403, metadata !"countLeadingZeros", metadata !"countLeadingZeros", metadata !"_ZN11ap_int_baseILi33ELb1ELb1EE17countLeadingZerosEv", metadata !165, i32 1838, metadata !600, i1 false, i1 false, i32 0, i32 0, null, i32 256, i1 false, null, null, i32 0, metadata !177, i32 1838} ; [ DW_TAG_subprogram ]
!600 = metadata !{i32 786453, i32 0, metadata !"", i32 0, i32 0, i64 0, i64 0, i64 0, i32 0, null, metadata !601, i32 0, i32 0} ; [ DW_TAG_subroutine_type ]
!601 = metadata !{metadata !181, metadata !419}
!602 = metadata !{i32 786478, i32 0, metadata !403, metadata !"operator++", metadata !"operator++", metadata !"_ZN11ap_int_baseILi33ELb1ELb1EEppEv", metadata !165, i32 1895, metadata !580, i1 false, i1 false, i32 0, i32 0, null, i32 256, i1 false, null, null, i32 0, metadata !177, i32 1895} ; [ DW_TAG_subprogram ]
!603 = metadata !{i32 786478, i32 0, metadata !403, metadata !"operator--", metadata !"operator--", metadata !"_ZN11ap_int_baseILi33ELb1ELb1EEmmEv", metadata !165, i32 1899, metadata !580, i1 false, i1 false, i32 0, i32 0, null, i32 256, i1 false, null, null, i32 0, metadata !177, i32 1899} ; [ DW_TAG_subprogram ]
!604 = metadata !{i32 786478, i32 0, metadata !403, metadata !"operator++", metadata !"operator++", metadata !"_ZN11ap_int_baseILi33ELb1ELb1EEppEi", metadata !165, i32 1907, metadata !605, i1 false, i1 false, i32 0, i32 0, null, i32 256, i1 false, null, null, i32 0, metadata !177, i32 1907} ; [ DW_TAG_subprogram ]
!605 = metadata !{i32 786453, i32 0, metadata !"", i32 0, i32 0, i64 0, i64 0, i64 0, i32 0, null, metadata !606, i32 0, i32 0} ; [ DW_TAG_subroutine_type ]
!606 = metadata !{metadata !424, metadata !419, metadata !181}
!607 = metadata !{i32 786478, i32 0, metadata !403, metadata !"operator--", metadata !"operator--", metadata !"_ZN11ap_int_baseILi33ELb1ELb1EEmmEi", metadata !165, i32 1912, metadata !605, i1 false, i1 false, i32 0, i32 0, null, i32 256, i1 false, null, null, i32 0, metadata !177, i32 1912} ; [ DW_TAG_subprogram ]
!608 = metadata !{i32 786478, i32 0, metadata !403, metadata !"operator+", metadata !"operator+", metadata !"_ZNK11ap_int_baseILi33ELb1ELb1EEpsEv", metadata !165, i32 1921, metadata !609, i1 false, i1 false, i32 0, i32 0, null, i32 256, i1 false, null, null, i32 0, metadata !177, i32 1921} ; [ DW_TAG_subprogram ]
!609 = metadata !{i32 786453, i32 0, metadata !"", i32 0, i32 0, i64 0, i64 0, i64 0, i32 0, null, metadata !610, i32 0, i32 0} ; [ DW_TAG_subroutine_type ]
!610 = metadata !{metadata !403, metadata !537}
!611 = metadata !{i32 786478, i32 0, metadata !403, metadata !"operator!", metadata !"operator!", metadata !"_ZNK11ap_int_baseILi33ELb1ELb1EEntEv", metadata !165, i32 1927, metadata !539, i1 false, i1 false, i32 0, i32 0, null, i32 256, i1 false, null, null, i32 0, metadata !177, i32 1927} ; [ DW_TAG_subprogram ]
!612 = metadata !{i32 786478, i32 0, metadata !403, metadata !"operator-", metadata !"operator-", metadata !"_ZNK11ap_int_baseILi33ELb1ELb1EEngEv", metadata !165, i32 1932, metadata !613, i1 false, i1 false, i32 0, i32 0, null, i32 256, i1 false, null, null, i32 0, metadata !177, i32 1932} ; [ DW_TAG_subprogram ]
!613 = metadata !{i32 786453, i32 0, metadata !"", i32 0, i32 0, i64 0, i64 0, i64 0, i32 0, null, metadata !614, i32 0, i32 0} ; [ DW_TAG_subroutine_type ]
!614 = metadata !{metadata !615, metadata !537}
!615 = metadata !{i32 786434, null, metadata !"ap_int_base<34, true, true>", metadata !165, i32 651, i32 0, i32 0, i32 0, i32 4, null, null, i32 0} ; [ DW_TAG_class_type ]
!616 = metadata !{i32 786478, i32 0, metadata !403, metadata !"range", metadata !"range", metadata !"_ZN11ap_int_baseILi33ELb1ELb1EE5rangeEii", metadata !165, i32 2062, metadata !617, i1 false, i1 false, i32 0, i32 0, null, i32 256, i1 false, null, null, i32 0, metadata !177, i32 2062} ; [ DW_TAG_subprogram ]
!617 = metadata !{i32 786453, i32 0, metadata !"", i32 0, i32 0, i64 0, i64 0, i64 0, i32 0, null, metadata !618, i32 0, i32 0} ; [ DW_TAG_subroutine_type ]
!618 = metadata !{metadata !619, metadata !419, metadata !181, metadata !181}
!619 = metadata !{i32 786434, null, metadata !"ap_range_ref<33, true>", metadata !165, i32 925, i32 0, i32 0, i32 0, i32 4, null, null, i32 0} ; [ DW_TAG_class_type ]
!620 = metadata !{i32 786478, i32 0, metadata !403, metadata !"operator()", metadata !"operator()", metadata !"_ZN11ap_int_baseILi33ELb1ELb1EEclEii", metadata !165, i32 2068, metadata !617, i1 false, i1 false, i32 0, i32 0, null, i32 256, i1 false, null, null, i32 0, metadata !177, i32 2068} ; [ DW_TAG_subprogram ]
!621 = metadata !{i32 786478, i32 0, metadata !403, metadata !"range", metadata !"range", metadata !"_ZNK11ap_int_baseILi33ELb1ELb1EE5rangeEii", metadata !165, i32 2074, metadata !622, i1 false, i1 false, i32 0, i32 0, null, i32 256, i1 false, null, null, i32 0, metadata !177, i32 2074} ; [ DW_TAG_subprogram ]
!622 = metadata !{i32 786453, i32 0, metadata !"", i32 0, i32 0, i64 0, i64 0, i64 0, i32 0, null, metadata !623, i32 0, i32 0} ; [ DW_TAG_subroutine_type ]
!623 = metadata !{metadata !619, metadata !537, metadata !181, metadata !181}
!624 = metadata !{i32 786478, i32 0, metadata !403, metadata !"operator()", metadata !"operator()", metadata !"_ZNK11ap_int_baseILi33ELb1ELb1EEclEii", metadata !165, i32 2080, metadata !622, i1 false, i1 false, i32 0, i32 0, null, i32 256, i1 false, null, null, i32 0, metadata !177, i32 2080} ; [ DW_TAG_subprogram ]
!625 = metadata !{i32 786478, i32 0, metadata !403, metadata !"operator[]", metadata !"operator[]", metadata !"_ZN11ap_int_baseILi33ELb1ELb1EEixEi", metadata !165, i32 2099, metadata !626, i1 false, i1 false, i32 0, i32 0, null, i32 256, i1 false, null, null, i32 0, metadata !177, i32 2099} ; [ DW_TAG_subprogram ]
!626 = metadata !{i32 786453, i32 0, metadata !"", i32 0, i32 0, i64 0, i64 0, i64 0, i32 0, null, metadata !627, i32 0, i32 0} ; [ DW_TAG_subroutine_type ]
!627 = metadata !{metadata !628, metadata !419, metadata !181}
!628 = metadata !{i32 786434, null, metadata !"ap_bit_ref<33, true>", metadata !165, i32 1249, i64 128, i64 64, i32 0, i32 0, null, metadata !629, i32 0, null, metadata !662} ; [ DW_TAG_class_type ]
!629 = metadata !{metadata !630, metadata !631, metadata !632, metadata !638, metadata !642, metadata !646, metadata !647, metadata !651, metadata !654, metadata !655, metadata !658, metadata !659}
!630 = metadata !{i32 786445, metadata !628, metadata !"d_bv", metadata !165, i32 1250, i64 64, i64 64, i64 0, i32 0, metadata !495} ; [ DW_TAG_member ]
!631 = metadata !{i32 786445, metadata !628, metadata !"d_index", metadata !165, i32 1251, i64 32, i64 32, i64 64, i32 0, metadata !181} ; [ DW_TAG_member ]
!632 = metadata !{i32 786478, i32 0, metadata !628, metadata !"ap_bit_ref", metadata !"ap_bit_ref", metadata !"", metadata !165, i32 1254, metadata !633, i1 false, i1 false, i32 0, i32 0, null, i32 256, i1 false, null, null, i32 0, metadata !177, i32 1254} ; [ DW_TAG_subprogram ]
!633 = metadata !{i32 786453, i32 0, metadata !"", i32 0, i32 0, i64 0, i64 0, i64 0, i32 0, null, metadata !634, i32 0, i32 0} ; [ DW_TAG_subroutine_type ]
!634 = metadata !{null, metadata !635, metadata !636}
!635 = metadata !{i32 786447, i32 0, metadata !"", i32 0, i32 0, i64 64, i64 64, i64 0, i32 64, metadata !628} ; [ DW_TAG_pointer_type ]
!636 = metadata !{i32 786448, null, null, null, i32 0, i64 0, i64 0, i64 0, i32 0, metadata !637} ; [ DW_TAG_reference_type ]
!637 = metadata !{i32 786470, null, metadata !"", null, i32 0, i64 0, i64 0, i64 0, i32 0, metadata !628} ; [ DW_TAG_const_type ]
!638 = metadata !{i32 786478, i32 0, metadata !628, metadata !"ap_bit_ref", metadata !"ap_bit_ref", metadata !"", metadata !165, i32 1257, metadata !639, i1 false, i1 false, i32 0, i32 0, null, i32 256, i1 false, null, null, i32 0, metadata !177, i32 1257} ; [ DW_TAG_subprogram ]
!639 = metadata !{i32 786453, i32 0, metadata !"", i32 0, i32 0, i64 0, i64 0, i64 0, i32 0, null, metadata !640, i32 0, i32 0} ; [ DW_TAG_subroutine_type ]
!640 = metadata !{null, metadata !635, metadata !641, metadata !181}
!641 = metadata !{i32 786447, null, metadata !"", null, i32 0, i64 64, i64 64, i64 0, i32 0, metadata !403} ; [ DW_TAG_pointer_type ]
!642 = metadata !{i32 786478, i32 0, metadata !628, metadata !"operator _Bool", metadata !"operator _Bool", metadata !"_ZNK10ap_bit_refILi33ELb1EEcvbEv", metadata !165, i32 1259, metadata !643, i1 false, i1 false, i32 0, i32 0, null, i32 256, i1 false, null, null, i32 0, metadata !177, i32 1259} ; [ DW_TAG_subprogram ]
!643 = metadata !{i32 786453, i32 0, metadata !"", i32 0, i32 0, i64 0, i64 0, i64 0, i32 0, null, metadata !644, i32 0, i32 0} ; [ DW_TAG_subroutine_type ]
!644 = metadata !{metadata !183, metadata !645}
!645 = metadata !{i32 786447, i32 0, metadata !"", i32 0, i32 0, i64 64, i64 64, i64 0, i32 64, metadata !637} ; [ DW_TAG_pointer_type ]
!646 = metadata !{i32 786478, i32 0, metadata !628, metadata !"to_bool", metadata !"to_bool", metadata !"_ZNK10ap_bit_refILi33ELb1EE7to_boolEv", metadata !165, i32 1260, metadata !643, i1 false, i1 false, i32 0, i32 0, null, i32 256, i1 false, null, null, i32 0, metadata !177, i32 1260} ; [ DW_TAG_subprogram ]
!647 = metadata !{i32 786478, i32 0, metadata !628, metadata !"operator=", metadata !"operator=", metadata !"_ZN10ap_bit_refILi33ELb1EEaSEy", metadata !165, i32 1262, metadata !648, i1 false, i1 false, i32 0, i32 0, null, i32 256, i1 false, null, null, i32 0, metadata !177, i32 1262} ; [ DW_TAG_subprogram ]
!648 = metadata !{i32 786453, i32 0, metadata !"", i32 0, i32 0, i64 0, i64 0, i64 0, i32 0, null, metadata !649, i32 0, i32 0} ; [ DW_TAG_subroutine_type ]
!649 = metadata !{metadata !650, metadata !635, metadata !245}
!650 = metadata !{i32 786448, null, null, null, i32 0, i64 0, i64 0, i64 0, i32 0, metadata !628} ; [ DW_TAG_reference_type ]
!651 = metadata !{i32 786478, i32 0, metadata !628, metadata !"operator=", metadata !"operator=", metadata !"_ZN10ap_bit_refILi33ELb1EEaSERKS0_", metadata !165, i32 1282, metadata !652, i1 false, i1 false, i32 0, i32 0, null, i32 256, i1 false, null, null, i32 0, metadata !177, i32 1282} ; [ DW_TAG_subprogram ]
!652 = metadata !{i32 786453, i32 0, metadata !"", i32 0, i32 0, i64 0, i64 0, i64 0, i32 0, null, metadata !653, i32 0, i32 0} ; [ DW_TAG_subroutine_type ]
!653 = metadata !{metadata !650, metadata !635, metadata !636}
!654 = metadata !{i32 786478, i32 0, metadata !628, metadata !"get", metadata !"get", metadata !"_ZNK10ap_bit_refILi33ELb1EE3getEv", metadata !165, i32 1390, metadata !643, i1 false, i1 false, i32 0, i32 0, null, i32 256, i1 false, null, null, i32 0, metadata !177, i32 1390} ; [ DW_TAG_subprogram ]
!655 = metadata !{i32 786478, i32 0, metadata !628, metadata !"get", metadata !"get", metadata !"_ZN10ap_bit_refILi33ELb1EE3getEv", metadata !165, i32 1394, metadata !656, i1 false, i1 false, i32 0, i32 0, null, i32 256, i1 false, null, null, i32 0, metadata !177, i32 1394} ; [ DW_TAG_subprogram ]
!656 = metadata !{i32 786453, i32 0, metadata !"", i32 0, i32 0, i64 0, i64 0, i64 0, i32 0, null, metadata !657, i32 0, i32 0} ; [ DW_TAG_subroutine_type ]
!657 = metadata !{metadata !183, metadata !635}
!658 = metadata !{i32 786478, i32 0, metadata !628, metadata !"operator~", metadata !"operator~", metadata !"_ZNK10ap_bit_refILi33ELb1EEcoEv", metadata !165, i32 1403, metadata !643, i1 false, i1 false, i32 0, i32 0, null, i32 256, i1 false, null, null, i32 0, metadata !177, i32 1403} ; [ DW_TAG_subprogram ]
!659 = metadata !{i32 786478, i32 0, metadata !628, metadata !"length", metadata !"length", metadata !"_ZNK10ap_bit_refILi33ELb1EE6lengthEv", metadata !165, i32 1408, metadata !660, i1 false, i1 false, i32 0, i32 0, null, i32 256, i1 false, null, null, i32 0, metadata !177, i32 1408} ; [ DW_TAG_subprogram ]
!660 = metadata !{i32 786453, i32 0, metadata !"", i32 0, i32 0, i64 0, i64 0, i64 0, i32 0, null, metadata !661, i32 0, i32 0} ; [ DW_TAG_subroutine_type ]
!661 = metadata !{metadata !181, metadata !645}
!662 = metadata !{metadata !663, metadata !182}
!663 = metadata !{i32 786480, null, metadata !"_AP_W", metadata !181, i64 33, null, i32 0, i32 0} ; [ DW_TAG_template_value_parameter ]
!664 = metadata !{i32 786478, i32 0, metadata !403, metadata !"operator[]", metadata !"operator[]", metadata !"_ZNK11ap_int_baseILi33ELb1ELb1EEixEi", metadata !165, i32 2113, metadata !588, i1 false, i1 false, i32 0, i32 0, null, i32 256, i1 false, null, null, i32 0, metadata !177, i32 2113} ; [ DW_TAG_subprogram ]
!665 = metadata !{i32 786478, i32 0, metadata !403, metadata !"bit", metadata !"bit", metadata !"_ZN11ap_int_baseILi33ELb1ELb1EE3bitEi", metadata !165, i32 2127, metadata !626, i1 false, i1 false, i32 0, i32 0, null, i32 256, i1 false, null, null, i32 0, metadata !177, i32 2127} ; [ DW_TAG_subprogram ]
!666 = metadata !{i32 786478, i32 0, metadata !403, metadata !"bit", metadata !"bit", metadata !"_ZNK11ap_int_baseILi33ELb1ELb1EE3bitEi", metadata !165, i32 2141, metadata !588, i1 false, i1 false, i32 0, i32 0, null, i32 256, i1 false, null, null, i32 0, metadata !177, i32 2141} ; [ DW_TAG_subprogram ]
!667 = metadata !{i32 786478, i32 0, metadata !403, metadata !"and_reduce", metadata !"and_reduce", metadata !"_ZN11ap_int_baseILi33ELb1ELb1EE10and_reduceEv", metadata !165, i32 2321, metadata !668, i1 false, i1 false, i32 0, i32 0, null, i32 256, i1 false, null, null, i32 0, metadata !177, i32 2321} ; [ DW_TAG_subprogram ]
!668 = metadata !{i32 786453, i32 0, metadata !"", i32 0, i32 0, i64 0, i64 0, i64 0, i32 0, null, metadata !669, i32 0, i32 0} ; [ DW_TAG_subroutine_type ]
!669 = metadata !{metadata !183, metadata !419}
!670 = metadata !{i32 786478, i32 0, metadata !403, metadata !"nand_reduce", metadata !"nand_reduce", metadata !"_ZN11ap_int_baseILi33ELb1ELb1EE11nand_reduceEv", metadata !165, i32 2324, metadata !668, i1 false, i1 false, i32 0, i32 0, null, i32 256, i1 false, null, null, i32 0, metadata !177, i32 2324} ; [ DW_TAG_subprogram ]
!671 = metadata !{i32 786478, i32 0, metadata !403, metadata !"or_reduce", metadata !"or_reduce", metadata !"_ZN11ap_int_baseILi33ELb1ELb1EE9or_reduceEv", metadata !165, i32 2327, metadata !668, i1 false, i1 false, i32 0, i32 0, null, i32 256, i1 false, null, null, i32 0, metadata !177, i32 2327} ; [ DW_TAG_subprogram ]
!672 = metadata !{i32 786478, i32 0, metadata !403, metadata !"nor_reduce", metadata !"nor_reduce", metadata !"_ZN11ap_int_baseILi33ELb1ELb1EE10nor_reduceEv", metadata !165, i32 2330, metadata !668, i1 false, i1 false, i32 0, i32 0, null, i32 256, i1 false, null, null, i32 0, metadata !177, i32 2330} ; [ DW_TAG_subprogram ]
!673 = metadata !{i32 786478, i32 0, metadata !403, metadata !"xor_reduce", metadata !"xor_reduce", metadata !"_ZN11ap_int_baseILi33ELb1ELb1EE10xor_reduceEv", metadata !165, i32 2333, metadata !668, i1 false, i1 false, i32 0, i32 0, null, i32 256, i1 false, null, null, i32 0, metadata !177, i32 2333} ; [ DW_TAG_subprogram ]
!674 = metadata !{i32 786478, i32 0, metadata !403, metadata !"xnor_reduce", metadata !"xnor_reduce", metadata !"_ZN11ap_int_baseILi33ELb1ELb1EE11xnor_reduceEv", metadata !165, i32 2336, metadata !668, i1 false, i1 false, i32 0, i32 0, null, i32 256, i1 false, null, null, i32 0, metadata !177, i32 2336} ; [ DW_TAG_subprogram ]
!675 = metadata !{i32 786478, i32 0, metadata !403, metadata !"and_reduce", metadata !"and_reduce", metadata !"_ZNK11ap_int_baseILi33ELb1ELb1EE10and_reduceEv", metadata !165, i32 2340, metadata !539, i1 false, i1 false, i32 0, i32 0, null, i32 256, i1 false, null, null, i32 0, metadata !177, i32 2340} ; [ DW_TAG_subprogram ]
!676 = metadata !{i32 786478, i32 0, metadata !403, metadata !"nand_reduce", metadata !"nand_reduce", metadata !"_ZNK11ap_int_baseILi33ELb1ELb1EE11nand_reduceEv", metadata !165, i32 2343, metadata !539, i1 false, i1 false, i32 0, i32 0, null, i32 256, i1 false, null, null, i32 0, metadata !177, i32 2343} ; [ DW_TAG_subprogram ]
!677 = metadata !{i32 786478, i32 0, metadata !403, metadata !"or_reduce", metadata !"or_reduce", metadata !"_ZNK11ap_int_baseILi33ELb1ELb1EE9or_reduceEv", metadata !165, i32 2346, metadata !539, i1 false, i1 false, i32 0, i32 0, null, i32 256, i1 false, null, null, i32 0, metadata !177, i32 2346} ; [ DW_TAG_subprogram ]
!678 = metadata !{i32 786478, i32 0, metadata !403, metadata !"nor_reduce", metadata !"nor_reduce", metadata !"_ZNK11ap_int_baseILi33ELb1ELb1EE10nor_reduceEv", metadata !165, i32 2349, metadata !539, i1 false, i1 false, i32 0, i32 0, null, i32 256, i1 false, null, null, i32 0, metadata !177, i32 2349} ; [ DW_TAG_subprogram ]
!679 = metadata !{i32 786478, i32 0, metadata !403, metadata !"xor_reduce", metadata !"xor_reduce", metadata !"_ZNK11ap_int_baseILi33ELb1ELb1EE10xor_reduceEv", metadata !165, i32 2352, metadata !539, i1 false, i1 false, i32 0, i32 0, null, i32 256, i1 false, null, null, i32 0, metadata !177, i32 2352} ; [ DW_TAG_subprogram ]
!680 = metadata !{i32 786478, i32 0, metadata !403, metadata !"xnor_reduce", metadata !"xnor_reduce", metadata !"_ZNK11ap_int_baseILi33ELb1ELb1EE11xnor_reduceEv", metadata !165, i32 2355, metadata !539, i1 false, i1 false, i32 0, i32 0, null, i32 256, i1 false, null, null, i32 0, metadata !177, i32 2355} ; [ DW_TAG_subprogram ]
!681 = metadata !{i32 786478, i32 0, metadata !403, metadata !"to_string", metadata !"to_string", metadata !"_ZNK11ap_int_baseILi33ELb1ELb1EE9to_stringEPci8BaseModeb", metadata !165, i32 2362, metadata !682, i1 false, i1 false, i32 0, i32 0, null, i32 256, i1 false, null, null, i32 0, metadata !177, i32 2362} ; [ DW_TAG_subprogram ]
!682 = metadata !{i32 786453, i32 0, metadata !"", i32 0, i32 0, i64 0, i64 0, i64 0, i32 0, null, metadata !683, i32 0, i32 0} ; [ DW_TAG_subroutine_type ]
!683 = metadata !{null, metadata !537, metadata !684, metadata !181, metadata !685, metadata !183}
!684 = metadata !{i32 786447, null, metadata !"", null, i32 0, i64 64, i64 64, i64 0, i32 0, metadata !264} ; [ DW_TAG_pointer_type ]
!685 = metadata !{i32 786436, null, metadata !"BaseMode", metadata !165, i32 603, i64 5, i64 8, i32 0, i32 0, null, metadata !686, i32 0, i32 0} ; [ DW_TAG_enumeration_type ]
!686 = metadata !{metadata !687, metadata !688, metadata !689, metadata !690}
!687 = metadata !{i32 786472, metadata !"SC_BIN", i64 2} ; [ DW_TAG_enumerator ]
!688 = metadata !{i32 786472, metadata !"SC_OCT", i64 8} ; [ DW_TAG_enumerator ]
!689 = metadata !{i32 786472, metadata !"SC_DEC", i64 10} ; [ DW_TAG_enumerator ]
!690 = metadata !{i32 786472, metadata !"SC_HEX", i64 16} ; [ DW_TAG_enumerator ]
!691 = metadata !{i32 786478, i32 0, metadata !403, metadata !"to_string", metadata !"to_string", metadata !"_ZNK11ap_int_baseILi33ELb1ELb1EE9to_stringE8BaseModeb", metadata !165, i32 2389, metadata !692, i1 false, i1 false, i32 0, i32 0, null, i32 256, i1 false, null, null, i32 0, metadata !177, i32 2389} ; [ DW_TAG_subprogram ]
!692 = metadata !{i32 786453, i32 0, metadata !"", i32 0, i32 0, i64 0, i64 0, i64 0, i32 0, null, metadata !693, i32 0, i32 0} ; [ DW_TAG_subroutine_type ]
!693 = metadata !{metadata !684, metadata !537, metadata !685, metadata !183}
!694 = metadata !{i32 786478, i32 0, metadata !403, metadata !"to_string", metadata !"to_string", metadata !"_ZNK11ap_int_baseILi33ELb1ELb1EE9to_stringEab", metadata !165, i32 2393, metadata !695, i1 false, i1 false, i32 0, i32 0, null, i32 256, i1 false, null, null, i32 0, metadata !177, i32 2393} ; [ DW_TAG_subprogram ]
!695 = metadata !{i32 786453, i32 0, metadata !"", i32 0, i32 0, i64 0, i64 0, i64 0, i32 0, null, metadata !696, i32 0, i32 0} ; [ DW_TAG_subroutine_type ]
!696 = metadata !{metadata !684, metadata !537, metadata !208, metadata !183}
!697 = metadata !{metadata !663, metadata !182, metadata !698}
!698 = metadata !{i32 786480, null, metadata !"_AP_C", metadata !183, i64 1, null, i32 0, i32 0} ; [ DW_TAG_template_value_parameter ]
!699 = metadata !{i32 786478, i32 0, metadata !164, metadata !"range", metadata !"range", metadata !"_ZN11ap_int_baseILi32ELb1ELb1EE5rangeEii", metadata !165, i32 2062, metadata !700, i1 false, i1 false, i32 0, i32 0, null, i32 256, i1 false, null, null, i32 0, metadata !177, i32 2062} ; [ DW_TAG_subprogram ]
!700 = metadata !{i32 786453, i32 0, metadata !"", i32 0, i32 0, i64 0, i64 0, i64 0, i32 0, null, metadata !701, i32 0, i32 0} ; [ DW_TAG_subroutine_type ]
!701 = metadata !{metadata !702, metadata !187, metadata !181, metadata !181}
!702 = metadata !{i32 786434, null, metadata !"ap_range_ref<32, true>", metadata !165, i32 925, i32 0, i32 0, i32 0, i32 4, null, null, i32 0} ; [ DW_TAG_class_type ]
!703 = metadata !{i32 786478, i32 0, metadata !164, metadata !"operator()", metadata !"operator()", metadata !"_ZN11ap_int_baseILi32ELb1ELb1EEclEii", metadata !165, i32 2068, metadata !700, i1 false, i1 false, i32 0, i32 0, null, i32 256, i1 false, null, null, i32 0, metadata !177, i32 2068} ; [ DW_TAG_subprogram ]
!704 = metadata !{i32 786478, i32 0, metadata !164, metadata !"range", metadata !"range", metadata !"_ZNK11ap_int_baseILi32ELb1ELb1EE5rangeEii", metadata !165, i32 2074, metadata !705, i1 false, i1 false, i32 0, i32 0, null, i32 256, i1 false, null, null, i32 0, metadata !177, i32 2074} ; [ DW_TAG_subprogram ]
!705 = metadata !{i32 786453, i32 0, metadata !"", i32 0, i32 0, i64 0, i64 0, i64 0, i32 0, null, metadata !706, i32 0, i32 0} ; [ DW_TAG_subroutine_type ]
!706 = metadata !{metadata !702, metadata !325, metadata !181, metadata !181}
!707 = metadata !{i32 786478, i32 0, metadata !164, metadata !"operator()", metadata !"operator()", metadata !"_ZNK11ap_int_baseILi32ELb1ELb1EEclEii", metadata !165, i32 2080, metadata !705, i1 false, i1 false, i32 0, i32 0, null, i32 256, i1 false, null, null, i32 0, metadata !177, i32 2080} ; [ DW_TAG_subprogram ]
!708 = metadata !{i32 786478, i32 0, metadata !164, metadata !"operator[]", metadata !"operator[]", metadata !"_ZN11ap_int_baseILi32ELb1ELb1EEixEi", metadata !165, i32 2099, metadata !709, i1 false, i1 false, i32 0, i32 0, null, i32 256, i1 false, null, null, i32 0, metadata !177, i32 2099} ; [ DW_TAG_subprogram ]
!709 = metadata !{i32 786453, i32 0, metadata !"", i32 0, i32 0, i64 0, i64 0, i64 0, i32 0, null, metadata !710, i32 0, i32 0} ; [ DW_TAG_subroutine_type ]
!710 = metadata !{metadata !711, metadata !187, metadata !181}
!711 = metadata !{i32 786434, null, metadata !"ap_bit_ref<32, true>", metadata !165, i32 1249, i32 0, i32 0, i32 0, i32 4, null, null, i32 0} ; [ DW_TAG_class_type ]
!712 = metadata !{i32 786478, i32 0, metadata !164, metadata !"operator[]", metadata !"operator[]", metadata !"_ZNK11ap_int_baseILi32ELb1ELb1EEixEi", metadata !165, i32 2113, metadata !376, i1 false, i1 false, i32 0, i32 0, null, i32 256, i1 false, null, null, i32 0, metadata !177, i32 2113} ; [ DW_TAG_subprogram ]
!713 = metadata !{i32 786478, i32 0, metadata !164, metadata !"bit", metadata !"bit", metadata !"_ZN11ap_int_baseILi32ELb1ELb1EE3bitEi", metadata !165, i32 2127, metadata !709, i1 false, i1 false, i32 0, i32 0, null, i32 256, i1 false, null, null, i32 0, metadata !177, i32 2127} ; [ DW_TAG_subprogram ]
!714 = metadata !{i32 786478, i32 0, metadata !164, metadata !"bit", metadata !"bit", metadata !"_ZNK11ap_int_baseILi32ELb1ELb1EE3bitEi", metadata !165, i32 2141, metadata !376, i1 false, i1 false, i32 0, i32 0, null, i32 256, i1 false, null, null, i32 0, metadata !177, i32 2141} ; [ DW_TAG_subprogram ]
!715 = metadata !{i32 786478, i32 0, metadata !164, metadata !"and_reduce", metadata !"and_reduce", metadata !"_ZN11ap_int_baseILi32ELb1ELb1EE10and_reduceEv", metadata !165, i32 2321, metadata !716, i1 false, i1 false, i32 0, i32 0, null, i32 256, i1 false, null, null, i32 0, metadata !177, i32 2321} ; [ DW_TAG_subprogram ]
!716 = metadata !{i32 786453, i32 0, metadata !"", i32 0, i32 0, i64 0, i64 0, i64 0, i32 0, null, metadata !717, i32 0, i32 0} ; [ DW_TAG_subroutine_type ]
!717 = metadata !{metadata !183, metadata !187}
!718 = metadata !{i32 786478, i32 0, metadata !164, metadata !"nand_reduce", metadata !"nand_reduce", metadata !"_ZN11ap_int_baseILi32ELb1ELb1EE11nand_reduceEv", metadata !165, i32 2324, metadata !716, i1 false, i1 false, i32 0, i32 0, null, i32 256, i1 false, null, null, i32 0, metadata !177, i32 2324} ; [ DW_TAG_subprogram ]
!719 = metadata !{i32 786478, i32 0, metadata !164, metadata !"or_reduce", metadata !"or_reduce", metadata !"_ZN11ap_int_baseILi32ELb1ELb1EE9or_reduceEv", metadata !165, i32 2327, metadata !716, i1 false, i1 false, i32 0, i32 0, null, i32 256, i1 false, null, null, i32 0, metadata !177, i32 2327} ; [ DW_TAG_subprogram ]
!720 = metadata !{i32 786478, i32 0, metadata !164, metadata !"nor_reduce", metadata !"nor_reduce", metadata !"_ZN11ap_int_baseILi32ELb1ELb1EE10nor_reduceEv", metadata !165, i32 2330, metadata !716, i1 false, i1 false, i32 0, i32 0, null, i32 256, i1 false, null, null, i32 0, metadata !177, i32 2330} ; [ DW_TAG_subprogram ]
!721 = metadata !{i32 786478, i32 0, metadata !164, metadata !"xor_reduce", metadata !"xor_reduce", metadata !"_ZN11ap_int_baseILi32ELb1ELb1EE10xor_reduceEv", metadata !165, i32 2333, metadata !716, i1 false, i1 false, i32 0, i32 0, null, i32 256, i1 false, null, null, i32 0, metadata !177, i32 2333} ; [ DW_TAG_subprogram ]
!722 = metadata !{i32 786478, i32 0, metadata !164, metadata !"xnor_reduce", metadata !"xnor_reduce", metadata !"_ZN11ap_int_baseILi32ELb1ELb1EE11xnor_reduceEv", metadata !165, i32 2336, metadata !716, i1 false, i1 false, i32 0, i32 0, null, i32 256, i1 false, null, null, i32 0, metadata !177, i32 2336} ; [ DW_TAG_subprogram ]
!723 = metadata !{i32 786478, i32 0, metadata !164, metadata !"and_reduce", metadata !"and_reduce", metadata !"_ZNK11ap_int_baseILi32ELb1ELb1EE10and_reduceEv", metadata !165, i32 2340, metadata !327, i1 false, i1 false, i32 0, i32 0, null, i32 256, i1 false, null, null, i32 0, metadata !177, i32 2340} ; [ DW_TAG_subprogram ]
!724 = metadata !{i32 786478, i32 0, metadata !164, metadata !"nand_reduce", metadata !"nand_reduce", metadata !"_ZNK11ap_int_baseILi32ELb1ELb1EE11nand_reduceEv", metadata !165, i32 2343, metadata !327, i1 false, i1 false, i32 0, i32 0, null, i32 256, i1 false, null, null, i32 0, metadata !177, i32 2343} ; [ DW_TAG_subprogram ]
!725 = metadata !{i32 786478, i32 0, metadata !164, metadata !"or_reduce", metadata !"or_reduce", metadata !"_ZNK11ap_int_baseILi32ELb1ELb1EE9or_reduceEv", metadata !165, i32 2346, metadata !327, i1 false, i1 false, i32 0, i32 0, null, i32 256, i1 false, null, null, i32 0, metadata !177, i32 2346} ; [ DW_TAG_subprogram ]
!726 = metadata !{i32 786478, i32 0, metadata !164, metadata !"nor_reduce", metadata !"nor_reduce", metadata !"_ZNK11ap_int_baseILi32ELb1ELb1EE10nor_reduceEv", metadata !165, i32 2349, metadata !327, i1 false, i1 false, i32 0, i32 0, null, i32 256, i1 false, null, null, i32 0, metadata !177, i32 2349} ; [ DW_TAG_subprogram ]
!727 = metadata !{i32 786478, i32 0, metadata !164, metadata !"xor_reduce", metadata !"xor_reduce", metadata !"_ZNK11ap_int_baseILi32ELb1ELb1EE10xor_reduceEv", metadata !165, i32 2352, metadata !327, i1 false, i1 false, i32 0, i32 0, null, i32 256, i1 false, null, null, i32 0, metadata !177, i32 2352} ; [ DW_TAG_subprogram ]
!728 = metadata !{i32 786478, i32 0, metadata !164, metadata !"xnor_reduce", metadata !"xnor_reduce", metadata !"_ZNK11ap_int_baseILi32ELb1ELb1EE11xnor_reduceEv", metadata !165, i32 2355, metadata !327, i1 false, i1 false, i32 0, i32 0, null, i32 256, i1 false, null, null, i32 0, metadata !177, i32 2355} ; [ DW_TAG_subprogram ]
!729 = metadata !{i32 786478, i32 0, metadata !164, metadata !"to_string", metadata !"to_string", metadata !"_ZNK11ap_int_baseILi32ELb1ELb1EE9to_stringEPci8BaseModeb", metadata !165, i32 2362, metadata !730, i1 false, i1 false, i32 0, i32 0, null, i32 256, i1 false, null, null, i32 0, metadata !177, i32 2362} ; [ DW_TAG_subprogram ]
!730 = metadata !{i32 786453, i32 0, metadata !"", i32 0, i32 0, i64 0, i64 0, i64 0, i32 0, null, metadata !731, i32 0, i32 0} ; [ DW_TAG_subroutine_type ]
!731 = metadata !{null, metadata !325, metadata !684, metadata !181, metadata !685, metadata !183}
!732 = metadata !{i32 786478, i32 0, metadata !164, metadata !"to_string", metadata !"to_string", metadata !"_ZNK11ap_int_baseILi32ELb1ELb1EE9to_stringE8BaseModeb", metadata !165, i32 2389, metadata !733, i1 false, i1 false, i32 0, i32 0, null, i32 256, i1 false, null, null, i32 0, metadata !177, i32 2389} ; [ DW_TAG_subprogram ]
!733 = metadata !{i32 786453, i32 0, metadata !"", i32 0, i32 0, i64 0, i64 0, i64 0, i32 0, null, metadata !734, i32 0, i32 0} ; [ DW_TAG_subroutine_type ]
!734 = metadata !{metadata !684, metadata !325, metadata !685, metadata !183}
!735 = metadata !{i32 786478, i32 0, metadata !164, metadata !"to_string", metadata !"to_string", metadata !"_ZNK11ap_int_baseILi32ELb1ELb1EE9to_stringEab", metadata !165, i32 2393, metadata !736, i1 false, i1 false, i32 0, i32 0, null, i32 256, i1 false, null, null, i32 0, metadata !177, i32 2393} ; [ DW_TAG_subprogram ]
!736 = metadata !{i32 786453, i32 0, metadata !"", i32 0, i32 0, i64 0, i64 0, i64 0, i32 0, null, metadata !737, i32 0, i32 0} ; [ DW_TAG_subroutine_type ]
!737 = metadata !{metadata !684, metadata !325, metadata !208, metadata !183}
!738 = metadata !{i32 786478, i32 0, metadata !164, metadata !"~ap_int_base", metadata !"~ap_int_base", metadata !"", metadata !165, i32 1453, metadata !185, i1 false, i1 false, i32 0, i32 0, null, i32 320, i1 false, null, null, i32 0, metadata !177, i32 1453} ; [ DW_TAG_subprogram ]
!739 = metadata !{metadata !740, metadata !182, metadata !698}
!740 = metadata !{i32 786480, null, metadata !"_AP_W", metadata !181, i64 32, null, i32 0, i32 0} ; [ DW_TAG_template_value_parameter ]
!741 = metadata !{i32 786478, i32 0, metadata !160, metadata !"ap_int", metadata !"ap_int", metadata !"", metadata !161, i32 77, metadata !742, i1 false, i1 false, i32 0, i32 0, null, i32 256, i1 false, null, null, i32 0, metadata !177, i32 77} ; [ DW_TAG_subprogram ]
!742 = metadata !{i32 786453, i32 0, metadata !"", i32 0, i32 0, i64 0, i64 0, i64 0, i32 0, null, metadata !743, i32 0, i32 0} ; [ DW_TAG_subroutine_type ]
!743 = metadata !{null, metadata !744}
!744 = metadata !{i32 786447, i32 0, metadata !"", i32 0, i32 0, i64 64, i64 64, i64 0, i32 64, metadata !160} ; [ DW_TAG_pointer_type ]
!745 = metadata !{i32 786478, i32 0, metadata !160, metadata !"ap_int", metadata !"ap_int", metadata !"", metadata !161, i32 140, metadata !746, i1 false, i1 false, i32 0, i32 0, null, i32 256, i1 false, null, null, i32 0, metadata !177, i32 140} ; [ DW_TAG_subprogram ]
!746 = metadata !{i32 786453, i32 0, metadata !"", i32 0, i32 0, i64 0, i64 0, i64 0, i32 0, null, metadata !747, i32 0, i32 0} ; [ DW_TAG_subroutine_type ]
!747 = metadata !{null, metadata !744, metadata !183}
!748 = metadata !{i32 786478, i32 0, metadata !160, metadata !"ap_int", metadata !"ap_int", metadata !"", metadata !161, i32 141, metadata !749, i1 false, i1 false, i32 0, i32 0, null, i32 256, i1 false, null, null, i32 0, metadata !177, i32 141} ; [ DW_TAG_subprogram ]
!749 = metadata !{i32 786453, i32 0, metadata !"", i32 0, i32 0, i64 0, i64 0, i64 0, i32 0, null, metadata !750, i32 0, i32 0} ; [ DW_TAG_subroutine_type ]
!750 = metadata !{null, metadata !744, metadata !208}
!751 = metadata !{i32 786478, i32 0, metadata !160, metadata !"ap_int", metadata !"ap_int", metadata !"", metadata !161, i32 142, metadata !752, i1 false, i1 false, i32 0, i32 0, null, i32 256, i1 false, null, null, i32 0, metadata !177, i32 142} ; [ DW_TAG_subprogram ]
!752 = metadata !{i32 786453, i32 0, metadata !"", i32 0, i32 0, i64 0, i64 0, i64 0, i32 0, null, metadata !753, i32 0, i32 0} ; [ DW_TAG_subroutine_type ]
!753 = metadata !{null, metadata !744, metadata !212}
!754 = metadata !{i32 786478, i32 0, metadata !160, metadata !"ap_int", metadata !"ap_int", metadata !"", metadata !161, i32 143, metadata !755, i1 false, i1 false, i32 0, i32 0, null, i32 256, i1 false, null, null, i32 0, metadata !177, i32 143} ; [ DW_TAG_subprogram ]
!755 = metadata !{i32 786453, i32 0, metadata !"", i32 0, i32 0, i64 0, i64 0, i64 0, i32 0, null, metadata !756, i32 0, i32 0} ; [ DW_TAG_subroutine_type ]
!756 = metadata !{null, metadata !744, metadata !216}
!757 = metadata !{i32 786478, i32 0, metadata !160, metadata !"ap_int", metadata !"ap_int", metadata !"", metadata !161, i32 144, metadata !758, i1 false, i1 false, i32 0, i32 0, null, i32 256, i1 false, null, null, i32 0, metadata !177, i32 144} ; [ DW_TAG_subprogram ]
!758 = metadata !{i32 786453, i32 0, metadata !"", i32 0, i32 0, i64 0, i64 0, i64 0, i32 0, null, metadata !759, i32 0, i32 0} ; [ DW_TAG_subroutine_type ]
!759 = metadata !{null, metadata !744, metadata !220}
!760 = metadata !{i32 786478, i32 0, metadata !160, metadata !"ap_int", metadata !"ap_int", metadata !"", metadata !161, i32 145, metadata !761, i1 false, i1 false, i32 0, i32 0, null, i32 256, i1 false, null, null, i32 0, metadata !177, i32 145} ; [ DW_TAG_subprogram ]
!761 = metadata !{i32 786453, i32 0, metadata !"", i32 0, i32 0, i64 0, i64 0, i64 0, i32 0, null, metadata !762, i32 0, i32 0} ; [ DW_TAG_subroutine_type ]
!762 = metadata !{null, metadata !744, metadata !181}
!763 = metadata !{i32 786478, i32 0, metadata !160, metadata !"ap_int", metadata !"ap_int", metadata !"", metadata !161, i32 146, metadata !764, i1 false, i1 false, i32 0, i32 0, null, i32 256, i1 false, null, null, i32 0, metadata !177, i32 146} ; [ DW_TAG_subprogram ]
!764 = metadata !{i32 786453, i32 0, metadata !"", i32 0, i32 0, i64 0, i64 0, i64 0, i32 0, null, metadata !765, i32 0, i32 0} ; [ DW_TAG_subroutine_type ]
!765 = metadata !{null, metadata !744, metadata !227}
!766 = metadata !{i32 786478, i32 0, metadata !160, metadata !"ap_int", metadata !"ap_int", metadata !"", metadata !161, i32 147, metadata !767, i1 false, i1 false, i32 0, i32 0, null, i32 256, i1 false, null, null, i32 0, metadata !177, i32 147} ; [ DW_TAG_subprogram ]
!767 = metadata !{i32 786453, i32 0, metadata !"", i32 0, i32 0, i64 0, i64 0, i64 0, i32 0, null, metadata !768, i32 0, i32 0} ; [ DW_TAG_subroutine_type ]
!768 = metadata !{null, metadata !744, metadata !231}
!769 = metadata !{i32 786478, i32 0, metadata !160, metadata !"ap_int", metadata !"ap_int", metadata !"", metadata !161, i32 148, metadata !770, i1 false, i1 false, i32 0, i32 0, null, i32 256, i1 false, null, null, i32 0, metadata !177, i32 148} ; [ DW_TAG_subprogram ]
!770 = metadata !{i32 786453, i32 0, metadata !"", i32 0, i32 0, i64 0, i64 0, i64 0, i32 0, null, metadata !771, i32 0, i32 0} ; [ DW_TAG_subroutine_type ]
!771 = metadata !{null, metadata !744, metadata !235}
!772 = metadata !{i32 786478, i32 0, metadata !160, metadata !"ap_int", metadata !"ap_int", metadata !"", metadata !161, i32 149, metadata !773, i1 false, i1 false, i32 0, i32 0, null, i32 256, i1 false, null, null, i32 0, metadata !177, i32 149} ; [ DW_TAG_subprogram ]
!773 = metadata !{i32 786453, i32 0, metadata !"", i32 0, i32 0, i64 0, i64 0, i64 0, i32 0, null, metadata !774, i32 0, i32 0} ; [ DW_TAG_subroutine_type ]
!774 = metadata !{null, metadata !744, metadata !245}
!775 = metadata !{i32 786478, i32 0, metadata !160, metadata !"ap_int", metadata !"ap_int", metadata !"", metadata !161, i32 150, metadata !776, i1 false, i1 false, i32 0, i32 0, null, i32 256, i1 false, null, null, i32 0, metadata !177, i32 150} ; [ DW_TAG_subprogram ]
!776 = metadata !{i32 786453, i32 0, metadata !"", i32 0, i32 0, i64 0, i64 0, i64 0, i32 0, null, metadata !777, i32 0, i32 0} ; [ DW_TAG_subroutine_type ]
!777 = metadata !{null, metadata !744, metadata !240}
!778 = metadata !{i32 786478, i32 0, metadata !160, metadata !"ap_int", metadata !"ap_int", metadata !"", metadata !161, i32 151, metadata !779, i1 false, i1 false, i32 0, i32 0, null, i32 256, i1 false, null, null, i32 0, metadata !177, i32 151} ; [ DW_TAG_subprogram ]
!779 = metadata !{i32 786453, i32 0, metadata !"", i32 0, i32 0, i64 0, i64 0, i64 0, i32 0, null, metadata !780, i32 0, i32 0} ; [ DW_TAG_subroutine_type ]
!780 = metadata !{null, metadata !744, metadata !249}
!781 = metadata !{i32 786478, i32 0, metadata !160, metadata !"ap_int", metadata !"ap_int", metadata !"", metadata !161, i32 152, metadata !782, i1 false, i1 false, i32 0, i32 0, null, i32 256, i1 false, null, null, i32 0, metadata !177, i32 152} ; [ DW_TAG_subprogram ]
!782 = metadata !{i32 786453, i32 0, metadata !"", i32 0, i32 0, i64 0, i64 0, i64 0, i32 0, null, metadata !783, i32 0, i32 0} ; [ DW_TAG_subroutine_type ]
!783 = metadata !{null, metadata !744, metadata !254}
!784 = metadata !{i32 786478, i32 0, metadata !160, metadata !"ap_int", metadata !"ap_int", metadata !"", metadata !161, i32 153, metadata !785, i1 false, i1 false, i32 0, i32 0, null, i32 256, i1 false, null, null, i32 0, metadata !177, i32 153} ; [ DW_TAG_subprogram ]
!785 = metadata !{i32 786453, i32 0, metadata !"", i32 0, i32 0, i64 0, i64 0, i64 0, i32 0, null, metadata !786, i32 0, i32 0} ; [ DW_TAG_subroutine_type ]
!786 = metadata !{null, metadata !744, metadata !258}
!787 = metadata !{i32 786478, i32 0, metadata !160, metadata !"ap_int", metadata !"ap_int", metadata !"", metadata !161, i32 155, metadata !788, i1 false, i1 false, i32 0, i32 0, null, i32 256, i1 false, null, null, i32 0, metadata !177, i32 155} ; [ DW_TAG_subprogram ]
!788 = metadata !{i32 786453, i32 0, metadata !"", i32 0, i32 0, i64 0, i64 0, i64 0, i32 0, null, metadata !789, i32 0, i32 0} ; [ DW_TAG_subroutine_type ]
!789 = metadata !{null, metadata !744, metadata !262}
!790 = metadata !{i32 786478, i32 0, metadata !160, metadata !"ap_int", metadata !"ap_int", metadata !"", metadata !161, i32 156, metadata !791, i1 false, i1 false, i32 0, i32 0, null, i32 256, i1 false, null, null, i32 0, metadata !177, i32 156} ; [ DW_TAG_subprogram ]
!791 = metadata !{i32 786453, i32 0, metadata !"", i32 0, i32 0, i64 0, i64 0, i64 0, i32 0, null, metadata !792, i32 0, i32 0} ; [ DW_TAG_subroutine_type ]
!792 = metadata !{null, metadata !744, metadata !262, metadata !208}
!793 = metadata !{i32 786478, i32 0, metadata !160, metadata !"operator=", metadata !"operator=", metadata !"_ZNV6ap_intILi32EEaSERKS0_", metadata !161, i32 160, metadata !794, i1 false, i1 false, i32 0, i32 0, null, i32 256, i1 false, null, null, i32 0, metadata !177, i32 160} ; [ DW_TAG_subprogram ]
!794 = metadata !{i32 786453, i32 0, metadata !"", i32 0, i32 0, i64 0, i64 0, i64 0, i32 0, null, metadata !795, i32 0, i32 0} ; [ DW_TAG_subroutine_type ]
!795 = metadata !{null, metadata !796, metadata !797}
!796 = metadata !{i32 786447, i32 0, metadata !"", i32 0, i32 0, i64 64, i64 64, i64 0, i32 64, metadata !159} ; [ DW_TAG_pointer_type ]
!797 = metadata !{i32 786448, null, null, null, i32 0, i64 0, i64 0, i64 0, i32 0, metadata !798} ; [ DW_TAG_reference_type ]
!798 = metadata !{i32 786470, null, metadata !"", null, i32 0, i64 0, i64 0, i64 0, i32 0, metadata !160} ; [ DW_TAG_const_type ]
!799 = metadata !{i32 786478, i32 0, metadata !160, metadata !"operator=", metadata !"operator=", metadata !"_ZNV6ap_intILi32EEaSERVKS0_", metadata !161, i32 164, metadata !800, i1 false, i1 false, i32 0, i32 0, null, i32 256, i1 false, null, null, i32 0, metadata !177, i32 164} ; [ DW_TAG_subprogram ]
!800 = metadata !{i32 786453, i32 0, metadata !"", i32 0, i32 0, i64 0, i64 0, i64 0, i32 0, null, metadata !801, i32 0, i32 0} ; [ DW_TAG_subroutine_type ]
!801 = metadata !{null, metadata !796, metadata !802}
!802 = metadata !{i32 786448, null, null, null, i32 0, i64 0, i64 0, i64 0, i32 0, metadata !803} ; [ DW_TAG_reference_type ]
!803 = metadata !{i32 786470, null, metadata !"", null, i32 0, i64 0, i64 0, i64 0, i32 0, metadata !159} ; [ DW_TAG_const_type ]
!804 = metadata !{i32 786478, i32 0, metadata !160, metadata !"operator=", metadata !"operator=", metadata !"_ZN6ap_intILi32EEaSERVKS0_", metadata !161, i32 168, metadata !805, i1 false, i1 false, i32 0, i32 0, null, i32 256, i1 false, null, null, i32 0, metadata !177, i32 168} ; [ DW_TAG_subprogram ]
!805 = metadata !{i32 786453, i32 0, metadata !"", i32 0, i32 0, i64 0, i64 0, i64 0, i32 0, null, metadata !806, i32 0, i32 0} ; [ DW_TAG_subroutine_type ]
!806 = metadata !{metadata !807, metadata !744, metadata !802}
!807 = metadata !{i32 786448, null, null, null, i32 0, i64 0, i64 0, i64 0, i32 0, metadata !160} ; [ DW_TAG_reference_type ]
!808 = metadata !{i32 786478, i32 0, metadata !160, metadata !"operator=", metadata !"operator=", metadata !"_ZN6ap_intILi32EEaSERKS0_", metadata !161, i32 173, metadata !809, i1 false, i1 false, i32 0, i32 0, null, i32 256, i1 false, null, null, i32 0, metadata !177, i32 173} ; [ DW_TAG_subprogram ]
!809 = metadata !{i32 786453, i32 0, metadata !"", i32 0, i32 0, i64 0, i64 0, i64 0, i32 0, null, metadata !810, i32 0, i32 0} ; [ DW_TAG_subroutine_type ]
!810 = metadata !{metadata !807, metadata !744, metadata !797}
!811 = metadata !{i32 786478, i32 0, metadata !160, metadata !"~ap_int", metadata !"~ap_int", metadata !"", metadata !161, i32 74, metadata !742, i1 false, i1 false, i32 0, i32 0, null, i32 320, i1 false, null, null, i32 0, metadata !177, i32 74} ; [ DW_TAG_subprogram ]
!812 = metadata !{metadata !740}
!813 = metadata !{i32 786485, null, metadata !"", null, i32 0, i64 0, i64 0, i64 0, i32 0, metadata !814} ; [ DW_TAG_volatile_type ]
!814 = metadata !{i32 786434, null, metadata !"ap_int<6>", metadata !161, i32 74, i64 8, i64 8, i32 0, i32 0, null, metadata !815, i32 0, null, metadata !2285} ; [ DW_TAG_class_type ]
!815 = metadata !{metadata !816, metadata !1852, metadata !1856, metadata !2198, metadata !2204, metadata !2207, metadata !2212, metadata !2215, metadata !2218, metadata !2221, metadata !2224, metadata !2227, metadata !2230, metadata !2233, metadata !2236, metadata !2239, metadata !2242, metadata !2245, metadata !2248, metadata !2251, metadata !2254, metadata !2257, metadata !2260, metadata !2263, metadata !2266, metadata !2269, metadata !2273, metadata !2276, metadata !2280, metadata !2283, metadata !2284}
!816 = metadata !{i32 786460, metadata !814, null, metadata !161, i32 0, i64 0, i64 0, i64 0, i32 0, metadata !817} ; [ DW_TAG_inheritance ]
!817 = metadata !{i32 786434, null, metadata !"ap_int_base<6, true, true>", metadata !165, i32 1453, i64 8, i64 8, i32 0, i32 0, null, metadata !818, i32 0, null, metadata !1850} ; [ DW_TAG_class_type ]
!818 = metadata !{metadata !819, metadata !835, metadata !839, metadata !846, metadata !852, metadata !855, metadata !858, metadata !861, metadata !864, metadata !867, metadata !870, metadata !873, metadata !876, metadata !879, metadata !882, metadata !885, metadata !888, metadata !891, metadata !894, metadata !897, metadata !900, metadata !904, metadata !907, metadata !910, metadata !911, metadata !915, metadata !918, metadata !921, metadata !924, metadata !927, metadata !930, metadata !933, metadata !936, metadata !939, metadata !942, metadata !945, metadata !948, metadata !957, metadata !960, metadata !963, metadata !966, metadata !969, metadata !972, metadata !975, metadata !978, metadata !981, metadata !984, metadata !987, metadata !990, metadata !993, metadata !994, metadata !998, metadata !1001, metadata !1002, metadata !1003, metadata !1004, metadata !1005, metadata !1006, metadata !1009, metadata !1010, metadata !1013, metadata !1014, metadata !1015, metadata !1016, metadata !1017, metadata !1018, metadata !1021, metadata !1022, metadata !1023, metadata !1026, metadata !1027, metadata !1030, metadata !1031, metadata !1810, metadata !1814, metadata !1815, metadata !1818, metadata !1819, metadata !1823, metadata !1824, metadata !1825, metadata !1826, metadata !1829, metadata !1830, metadata !1831, metadata !1832, metadata !1833, metadata !1834, metadata !1835, metadata !1836, metadata !1837, metadata !1838, metadata !1839, metadata !1840, metadata !1843, metadata !1846, metadata !1849}
!819 = metadata !{i32 786460, metadata !817, null, metadata !165, i32 0, i64 0, i64 0, i64 0, i32 0, metadata !820} ; [ DW_TAG_inheritance ]
!820 = metadata !{i32 786434, null, metadata !"ssdm_int<6 + 1024 * 0, true>", metadata !169, i32 8, i64 8, i64 8, i32 0, i32 0, null, metadata !821, i32 0, null, metadata !833} ; [ DW_TAG_class_type ]
!821 = metadata !{metadata !822, metadata !824, metadata !828}
!822 = metadata !{i32 786445, metadata !820, metadata !"V", metadata !169, i32 8, i64 6, i64 8, i64 0, i32 0, metadata !823} ; [ DW_TAG_member ]
!823 = metadata !{i32 786468, null, metadata !"int6", null, i32 0, i64 6, i64 8, i64 0, i32 0, i32 5} ; [ DW_TAG_base_type ]
!824 = metadata !{i32 786478, i32 0, metadata !820, metadata !"ssdm_int", metadata !"ssdm_int", metadata !"", metadata !169, i32 8, metadata !825, i1 false, i1 false, i32 0, i32 0, null, i32 256, i1 false, null, null, i32 0, metadata !177, i32 8} ; [ DW_TAG_subprogram ]
!825 = metadata !{i32 786453, i32 0, metadata !"", i32 0, i32 0, i64 0, i64 0, i64 0, i32 0, null, metadata !826, i32 0, i32 0} ; [ DW_TAG_subroutine_type ]
!826 = metadata !{null, metadata !827}
!827 = metadata !{i32 786447, i32 0, metadata !"", i32 0, i32 0, i64 64, i64 64, i64 0, i32 64, metadata !820} ; [ DW_TAG_pointer_type ]
!828 = metadata !{i32 786478, i32 0, metadata !820, metadata !"ssdm_int", metadata !"ssdm_int", metadata !"", metadata !169, i32 8, metadata !829, i1 false, i1 false, i32 0, i32 0, null, i32 320, i1 false, null, null, i32 0, metadata !177, i32 8} ; [ DW_TAG_subprogram ]
!829 = metadata !{i32 786453, i32 0, metadata !"", i32 0, i32 0, i64 0, i64 0, i64 0, i32 0, null, metadata !830, i32 0, i32 0} ; [ DW_TAG_subroutine_type ]
!830 = metadata !{null, metadata !827, metadata !831}
!831 = metadata !{i32 786448, null, null, null, i32 0, i64 0, i64 0, i64 0, i32 0, metadata !832} ; [ DW_TAG_reference_type ]
!832 = metadata !{i32 786470, null, metadata !"", null, i32 0, i64 0, i64 0, i64 0, i32 0, metadata !820} ; [ DW_TAG_const_type ]
!833 = metadata !{metadata !834, metadata !182}
!834 = metadata !{i32 786480, null, metadata !"_AP_N", metadata !181, i64 6, null, i32 0, i32 0} ; [ DW_TAG_template_value_parameter ]
!835 = metadata !{i32 786478, i32 0, metadata !817, metadata !"ap_int_base", metadata !"ap_int_base", metadata !"", metadata !165, i32 1494, metadata !836, i1 false, i1 false, i32 0, i32 0, null, i32 256, i1 false, null, null, i32 0, metadata !177, i32 1494} ; [ DW_TAG_subprogram ]
!836 = metadata !{i32 786453, i32 0, metadata !"", i32 0, i32 0, i64 0, i64 0, i64 0, i32 0, null, metadata !837, i32 0, i32 0} ; [ DW_TAG_subroutine_type ]
!837 = metadata !{null, metadata !838}
!838 = metadata !{i32 786447, i32 0, metadata !"", i32 0, i32 0, i64 64, i64 64, i64 0, i32 64, metadata !817} ; [ DW_TAG_pointer_type ]
!839 = metadata !{i32 786478, i32 0, metadata !817, metadata !"ap_int_base<6, true>", metadata !"ap_int_base<6, true>", metadata !"", metadata !165, i32 1506, metadata !840, i1 false, i1 false, i32 0, i32 0, null, i32 256, i1 false, null, metadata !844, i32 0, metadata !177, i32 1506} ; [ DW_TAG_subprogram ]
!840 = metadata !{i32 786453, i32 0, metadata !"", i32 0, i32 0, i64 0, i64 0, i64 0, i32 0, null, metadata !841, i32 0, i32 0} ; [ DW_TAG_subroutine_type ]
!841 = metadata !{null, metadata !838, metadata !842}
!842 = metadata !{i32 786448, null, null, null, i32 0, i64 0, i64 0, i64 0, i32 0, metadata !843} ; [ DW_TAG_reference_type ]
!843 = metadata !{i32 786470, null, metadata !"", null, i32 0, i64 0, i64 0, i64 0, i32 0, metadata !817} ; [ DW_TAG_const_type ]
!844 = metadata !{metadata !845, metadata !195}
!845 = metadata !{i32 786480, null, metadata !"_AP_W2", metadata !181, i64 6, null, i32 0, i32 0} ; [ DW_TAG_template_value_parameter ]
!846 = metadata !{i32 786478, i32 0, metadata !817, metadata !"ap_int_base<6, true>", metadata !"ap_int_base<6, true>", metadata !"", metadata !165, i32 1509, metadata !847, i1 false, i1 false, i32 0, i32 0, null, i32 256, i1 false, null, metadata !844, i32 0, metadata !177, i32 1509} ; [ DW_TAG_subprogram ]
!847 = metadata !{i32 786453, i32 0, metadata !"", i32 0, i32 0, i64 0, i64 0, i64 0, i32 0, null, metadata !848, i32 0, i32 0} ; [ DW_TAG_subroutine_type ]
!848 = metadata !{null, metadata !838, metadata !849}
!849 = metadata !{i32 786448, null, null, null, i32 0, i64 0, i64 0, i64 0, i32 0, metadata !850} ; [ DW_TAG_reference_type ]
!850 = metadata !{i32 786470, null, metadata !"", null, i32 0, i64 0, i64 0, i64 0, i32 0, metadata !851} ; [ DW_TAG_const_type ]
!851 = metadata !{i32 786485, null, metadata !"", null, i32 0, i64 0, i64 0, i64 0, i32 0, metadata !817} ; [ DW_TAG_volatile_type ]
!852 = metadata !{i32 786478, i32 0, metadata !817, metadata !"ap_int_base", metadata !"ap_int_base", metadata !"", metadata !165, i32 1516, metadata !853, i1 false, i1 false, i32 0, i32 0, null, i32 384, i1 false, null, null, i32 0, metadata !177, i32 1516} ; [ DW_TAG_subprogram ]
!853 = metadata !{i32 786453, i32 0, metadata !"", i32 0, i32 0, i64 0, i64 0, i64 0, i32 0, null, metadata !854, i32 0, i32 0} ; [ DW_TAG_subroutine_type ]
!854 = metadata !{null, metadata !838, metadata !183}
!855 = metadata !{i32 786478, i32 0, metadata !817, metadata !"ap_int_base", metadata !"ap_int_base", metadata !"", metadata !165, i32 1517, metadata !856, i1 false, i1 false, i32 0, i32 0, null, i32 384, i1 false, null, null, i32 0, metadata !177, i32 1517} ; [ DW_TAG_subprogram ]
!856 = metadata !{i32 786453, i32 0, metadata !"", i32 0, i32 0, i64 0, i64 0, i64 0, i32 0, null, metadata !857, i32 0, i32 0} ; [ DW_TAG_subroutine_type ]
!857 = metadata !{null, metadata !838, metadata !208}
!858 = metadata !{i32 786478, i32 0, metadata !817, metadata !"ap_int_base", metadata !"ap_int_base", metadata !"", metadata !165, i32 1518, metadata !859, i1 false, i1 false, i32 0, i32 0, null, i32 384, i1 false, null, null, i32 0, metadata !177, i32 1518} ; [ DW_TAG_subprogram ]
!859 = metadata !{i32 786453, i32 0, metadata !"", i32 0, i32 0, i64 0, i64 0, i64 0, i32 0, null, metadata !860, i32 0, i32 0} ; [ DW_TAG_subroutine_type ]
!860 = metadata !{null, metadata !838, metadata !212}
!861 = metadata !{i32 786478, i32 0, metadata !817, metadata !"ap_int_base", metadata !"ap_int_base", metadata !"", metadata !165, i32 1519, metadata !862, i1 false, i1 false, i32 0, i32 0, null, i32 384, i1 false, null, null, i32 0, metadata !177, i32 1519} ; [ DW_TAG_subprogram ]
!862 = metadata !{i32 786453, i32 0, metadata !"", i32 0, i32 0, i64 0, i64 0, i64 0, i32 0, null, metadata !863, i32 0, i32 0} ; [ DW_TAG_subroutine_type ]
!863 = metadata !{null, metadata !838, metadata !216}
!864 = metadata !{i32 786478, i32 0, metadata !817, metadata !"ap_int_base", metadata !"ap_int_base", metadata !"", metadata !165, i32 1520, metadata !865, i1 false, i1 false, i32 0, i32 0, null, i32 384, i1 false, null, null, i32 0, metadata !177, i32 1520} ; [ DW_TAG_subprogram ]
!865 = metadata !{i32 786453, i32 0, metadata !"", i32 0, i32 0, i64 0, i64 0, i64 0, i32 0, null, metadata !866, i32 0, i32 0} ; [ DW_TAG_subroutine_type ]
!866 = metadata !{null, metadata !838, metadata !220}
!867 = metadata !{i32 786478, i32 0, metadata !817, metadata !"ap_int_base", metadata !"ap_int_base", metadata !"", metadata !165, i32 1521, metadata !868, i1 false, i1 false, i32 0, i32 0, null, i32 384, i1 false, null, null, i32 0, metadata !177, i32 1521} ; [ DW_TAG_subprogram ]
!868 = metadata !{i32 786453, i32 0, metadata !"", i32 0, i32 0, i64 0, i64 0, i64 0, i32 0, null, metadata !869, i32 0, i32 0} ; [ DW_TAG_subroutine_type ]
!869 = metadata !{null, metadata !838, metadata !181}
!870 = metadata !{i32 786478, i32 0, metadata !817, metadata !"ap_int_base", metadata !"ap_int_base", metadata !"", metadata !165, i32 1522, metadata !871, i1 false, i1 false, i32 0, i32 0, null, i32 384, i1 false, null, null, i32 0, metadata !177, i32 1522} ; [ DW_TAG_subprogram ]
!871 = metadata !{i32 786453, i32 0, metadata !"", i32 0, i32 0, i64 0, i64 0, i64 0, i32 0, null, metadata !872, i32 0, i32 0} ; [ DW_TAG_subroutine_type ]
!872 = metadata !{null, metadata !838, metadata !227}
!873 = metadata !{i32 786478, i32 0, metadata !817, metadata !"ap_int_base", metadata !"ap_int_base", metadata !"", metadata !165, i32 1523, metadata !874, i1 false, i1 false, i32 0, i32 0, null, i32 384, i1 false, null, null, i32 0, metadata !177, i32 1523} ; [ DW_TAG_subprogram ]
!874 = metadata !{i32 786453, i32 0, metadata !"", i32 0, i32 0, i64 0, i64 0, i64 0, i32 0, null, metadata !875, i32 0, i32 0} ; [ DW_TAG_subroutine_type ]
!875 = metadata !{null, metadata !838, metadata !231}
!876 = metadata !{i32 786478, i32 0, metadata !817, metadata !"ap_int_base", metadata !"ap_int_base", metadata !"", metadata !165, i32 1524, metadata !877, i1 false, i1 false, i32 0, i32 0, null, i32 384, i1 false, null, null, i32 0, metadata !177, i32 1524} ; [ DW_TAG_subprogram ]
!877 = metadata !{i32 786453, i32 0, metadata !"", i32 0, i32 0, i64 0, i64 0, i64 0, i32 0, null, metadata !878, i32 0, i32 0} ; [ DW_TAG_subroutine_type ]
!878 = metadata !{null, metadata !838, metadata !235}
!879 = metadata !{i32 786478, i32 0, metadata !817, metadata !"ap_int_base", metadata !"ap_int_base", metadata !"", metadata !165, i32 1525, metadata !880, i1 false, i1 false, i32 0, i32 0, null, i32 384, i1 false, null, null, i32 0, metadata !177, i32 1525} ; [ DW_TAG_subprogram ]
!880 = metadata !{i32 786453, i32 0, metadata !"", i32 0, i32 0, i64 0, i64 0, i64 0, i32 0, null, metadata !881, i32 0, i32 0} ; [ DW_TAG_subroutine_type ]
!881 = metadata !{null, metadata !838, metadata !239}
!882 = metadata !{i32 786478, i32 0, metadata !817, metadata !"ap_int_base", metadata !"ap_int_base", metadata !"", metadata !165, i32 1526, metadata !883, i1 false, i1 false, i32 0, i32 0, null, i32 384, i1 false, null, null, i32 0, metadata !177, i32 1526} ; [ DW_TAG_subprogram ]
!883 = metadata !{i32 786453, i32 0, metadata !"", i32 0, i32 0, i64 0, i64 0, i64 0, i32 0, null, metadata !884, i32 0, i32 0} ; [ DW_TAG_subroutine_type ]
!884 = metadata !{null, metadata !838, metadata !244}
!885 = metadata !{i32 786478, i32 0, metadata !817, metadata !"ap_int_base", metadata !"ap_int_base", metadata !"", metadata !165, i32 1527, metadata !886, i1 false, i1 false, i32 0, i32 0, null, i32 384, i1 false, null, null, i32 0, metadata !177, i32 1527} ; [ DW_TAG_subprogram ]
!886 = metadata !{i32 786453, i32 0, metadata !"", i32 0, i32 0, i64 0, i64 0, i64 0, i32 0, null, metadata !887, i32 0, i32 0} ; [ DW_TAG_subroutine_type ]
!887 = metadata !{null, metadata !838, metadata !249}
!888 = metadata !{i32 786478, i32 0, metadata !817, metadata !"ap_int_base", metadata !"ap_int_base", metadata !"", metadata !165, i32 1528, metadata !889, i1 false, i1 false, i32 0, i32 0, null, i32 384, i1 false, null, null, i32 0, metadata !177, i32 1528} ; [ DW_TAG_subprogram ]
!889 = metadata !{i32 786453, i32 0, metadata !"", i32 0, i32 0, i64 0, i64 0, i64 0, i32 0, null, metadata !890, i32 0, i32 0} ; [ DW_TAG_subroutine_type ]
!890 = metadata !{null, metadata !838, metadata !254}
!891 = metadata !{i32 786478, i32 0, metadata !817, metadata !"ap_int_base", metadata !"ap_int_base", metadata !"", metadata !165, i32 1529, metadata !892, i1 false, i1 false, i32 0, i32 0, null, i32 384, i1 false, null, null, i32 0, metadata !177, i32 1529} ; [ DW_TAG_subprogram ]
!892 = metadata !{i32 786453, i32 0, metadata !"", i32 0, i32 0, i64 0, i64 0, i64 0, i32 0, null, metadata !893, i32 0, i32 0} ; [ DW_TAG_subroutine_type ]
!893 = metadata !{null, metadata !838, metadata !258}
!894 = metadata !{i32 786478, i32 0, metadata !817, metadata !"ap_int_base", metadata !"ap_int_base", metadata !"", metadata !165, i32 1556, metadata !895, i1 false, i1 false, i32 0, i32 0, null, i32 256, i1 false, null, null, i32 0, metadata !177, i32 1556} ; [ DW_TAG_subprogram ]
!895 = metadata !{i32 786453, i32 0, metadata !"", i32 0, i32 0, i64 0, i64 0, i64 0, i32 0, null, metadata !896, i32 0, i32 0} ; [ DW_TAG_subroutine_type ]
!896 = metadata !{null, metadata !838, metadata !262}
!897 = metadata !{i32 786478, i32 0, metadata !817, metadata !"ap_int_base", metadata !"ap_int_base", metadata !"", metadata !165, i32 1563, metadata !898, i1 false, i1 false, i32 0, i32 0, null, i32 256, i1 false, null, null, i32 0, metadata !177, i32 1563} ; [ DW_TAG_subprogram ]
!898 = metadata !{i32 786453, i32 0, metadata !"", i32 0, i32 0, i64 0, i64 0, i64 0, i32 0, null, metadata !899, i32 0, i32 0} ; [ DW_TAG_subroutine_type ]
!899 = metadata !{null, metadata !838, metadata !262, metadata !208}
!900 = metadata !{i32 786478, i32 0, metadata !817, metadata !"read", metadata !"read", metadata !"_ZNV11ap_int_baseILi6ELb1ELb1EE4readEv", metadata !165, i32 1584, metadata !901, i1 false, i1 false, i32 0, i32 0, null, i32 256, i1 false, null, null, i32 0, metadata !177, i32 1584} ; [ DW_TAG_subprogram ]
!901 = metadata !{i32 786453, i32 0, metadata !"", i32 0, i32 0, i64 0, i64 0, i64 0, i32 0, null, metadata !902, i32 0, i32 0} ; [ DW_TAG_subroutine_type ]
!902 = metadata !{metadata !817, metadata !903}
!903 = metadata !{i32 786447, i32 0, metadata !"", i32 0, i32 0, i64 64, i64 64, i64 0, i32 64, metadata !851} ; [ DW_TAG_pointer_type ]
!904 = metadata !{i32 786478, i32 0, metadata !817, metadata !"write", metadata !"write", metadata !"_ZNV11ap_int_baseILi6ELb1ELb1EE5writeERKS0_", metadata !165, i32 1590, metadata !905, i1 false, i1 false, i32 0, i32 0, null, i32 256, i1 false, null, null, i32 0, metadata !177, i32 1590} ; [ DW_TAG_subprogram ]
!905 = metadata !{i32 786453, i32 0, metadata !"", i32 0, i32 0, i64 0, i64 0, i64 0, i32 0, null, metadata !906, i32 0, i32 0} ; [ DW_TAG_subroutine_type ]
!906 = metadata !{null, metadata !903, metadata !842}
!907 = metadata !{i32 786478, i32 0, metadata !817, metadata !"operator=", metadata !"operator=", metadata !"_ZNV11ap_int_baseILi6ELb1ELb1EEaSERVKS0_", metadata !165, i32 1602, metadata !908, i1 false, i1 false, i32 0, i32 0, null, i32 256, i1 false, null, null, i32 0, metadata !177, i32 1602} ; [ DW_TAG_subprogram ]
!908 = metadata !{i32 786453, i32 0, metadata !"", i32 0, i32 0, i64 0, i64 0, i64 0, i32 0, null, metadata !909, i32 0, i32 0} ; [ DW_TAG_subroutine_type ]
!909 = metadata !{null, metadata !903, metadata !849}
!910 = metadata !{i32 786478, i32 0, metadata !817, metadata !"operator=", metadata !"operator=", metadata !"_ZNV11ap_int_baseILi6ELb1ELb1EEaSERKS0_", metadata !165, i32 1611, metadata !905, i1 false, i1 false, i32 0, i32 0, null, i32 256, i1 false, null, null, i32 0, metadata !177, i32 1611} ; [ DW_TAG_subprogram ]
!911 = metadata !{i32 786478, i32 0, metadata !817, metadata !"operator=", metadata !"operator=", metadata !"_ZN11ap_int_baseILi6ELb1ELb1EEaSERVKS0_", metadata !165, i32 1634, metadata !912, i1 false, i1 false, i32 0, i32 0, null, i32 256, i1 false, null, null, i32 0, metadata !177, i32 1634} ; [ DW_TAG_subprogram ]
!912 = metadata !{i32 786453, i32 0, metadata !"", i32 0, i32 0, i64 0, i64 0, i64 0, i32 0, null, metadata !913, i32 0, i32 0} ; [ DW_TAG_subroutine_type ]
!913 = metadata !{metadata !914, metadata !838, metadata !849}
!914 = metadata !{i32 786448, null, null, null, i32 0, i64 0, i64 0, i64 0, i32 0, metadata !817} ; [ DW_TAG_reference_type ]
!915 = metadata !{i32 786478, i32 0, metadata !817, metadata !"operator=", metadata !"operator=", metadata !"_ZN11ap_int_baseILi6ELb1ELb1EEaSERKS0_", metadata !165, i32 1639, metadata !916, i1 false, i1 false, i32 0, i32 0, null, i32 256, i1 false, null, null, i32 0, metadata !177, i32 1639} ; [ DW_TAG_subprogram ]
!916 = metadata !{i32 786453, i32 0, metadata !"", i32 0, i32 0, i64 0, i64 0, i64 0, i32 0, null, metadata !917, i32 0, i32 0} ; [ DW_TAG_subroutine_type ]
!917 = metadata !{metadata !914, metadata !838, metadata !842}
!918 = metadata !{i32 786478, i32 0, metadata !817, metadata !"operator=", metadata !"operator=", metadata !"_ZN11ap_int_baseILi6ELb1ELb1EEaSEPKc", metadata !165, i32 1643, metadata !919, i1 false, i1 false, i32 0, i32 0, null, i32 256, i1 false, null, null, i32 0, metadata !177, i32 1643} ; [ DW_TAG_subprogram ]
!919 = metadata !{i32 786453, i32 0, metadata !"", i32 0, i32 0, i64 0, i64 0, i64 0, i32 0, null, metadata !920, i32 0, i32 0} ; [ DW_TAG_subroutine_type ]
!920 = metadata !{metadata !914, metadata !838, metadata !262}
!921 = metadata !{i32 786478, i32 0, metadata !817, metadata !"set", metadata !"set", metadata !"_ZN11ap_int_baseILi6ELb1ELb1EE3setEPKca", metadata !165, i32 1651, metadata !922, i1 false, i1 false, i32 0, i32 0, null, i32 256, i1 false, null, null, i32 0, metadata !177, i32 1651} ; [ DW_TAG_subprogram ]
!922 = metadata !{i32 786453, i32 0, metadata !"", i32 0, i32 0, i64 0, i64 0, i64 0, i32 0, null, metadata !923, i32 0, i32 0} ; [ DW_TAG_subroutine_type ]
!923 = metadata !{metadata !914, metadata !838, metadata !262, metadata !208}
!924 = metadata !{i32 786478, i32 0, metadata !817, metadata !"operator=", metadata !"operator=", metadata !"_ZN11ap_int_baseILi6ELb1ELb1EEaSEa", metadata !165, i32 1665, metadata !925, i1 false, i1 false, i32 0, i32 0, null, i32 256, i1 false, null, null, i32 0, metadata !177, i32 1665} ; [ DW_TAG_subprogram ]
!925 = metadata !{i32 786453, i32 0, metadata !"", i32 0, i32 0, i64 0, i64 0, i64 0, i32 0, null, metadata !926, i32 0, i32 0} ; [ DW_TAG_subroutine_type ]
!926 = metadata !{metadata !914, metadata !838, metadata !208}
!927 = metadata !{i32 786478, i32 0, metadata !817, metadata !"operator=", metadata !"operator=", metadata !"_ZN11ap_int_baseILi6ELb1ELb1EEaSEh", metadata !165, i32 1666, metadata !928, i1 false, i1 false, i32 0, i32 0, null, i32 256, i1 false, null, null, i32 0, metadata !177, i32 1666} ; [ DW_TAG_subprogram ]
!928 = metadata !{i32 786453, i32 0, metadata !"", i32 0, i32 0, i64 0, i64 0, i64 0, i32 0, null, metadata !929, i32 0, i32 0} ; [ DW_TAG_subroutine_type ]
!929 = metadata !{metadata !914, metadata !838, metadata !212}
!930 = metadata !{i32 786478, i32 0, metadata !817, metadata !"operator=", metadata !"operator=", metadata !"_ZN11ap_int_baseILi6ELb1ELb1EEaSEs", metadata !165, i32 1667, metadata !931, i1 false, i1 false, i32 0, i32 0, null, i32 256, i1 false, null, null, i32 0, metadata !177, i32 1667} ; [ DW_TAG_subprogram ]
!931 = metadata !{i32 786453, i32 0, metadata !"", i32 0, i32 0, i64 0, i64 0, i64 0, i32 0, null, metadata !932, i32 0, i32 0} ; [ DW_TAG_subroutine_type ]
!932 = metadata !{metadata !914, metadata !838, metadata !216}
!933 = metadata !{i32 786478, i32 0, metadata !817, metadata !"operator=", metadata !"operator=", metadata !"_ZN11ap_int_baseILi6ELb1ELb1EEaSEt", metadata !165, i32 1668, metadata !934, i1 false, i1 false, i32 0, i32 0, null, i32 256, i1 false, null, null, i32 0, metadata !177, i32 1668} ; [ DW_TAG_subprogram ]
!934 = metadata !{i32 786453, i32 0, metadata !"", i32 0, i32 0, i64 0, i64 0, i64 0, i32 0, null, metadata !935, i32 0, i32 0} ; [ DW_TAG_subroutine_type ]
!935 = metadata !{metadata !914, metadata !838, metadata !220}
!936 = metadata !{i32 786478, i32 0, metadata !817, metadata !"operator=", metadata !"operator=", metadata !"_ZN11ap_int_baseILi6ELb1ELb1EEaSEi", metadata !165, i32 1669, metadata !937, i1 false, i1 false, i32 0, i32 0, null, i32 256, i1 false, null, null, i32 0, metadata !177, i32 1669} ; [ DW_TAG_subprogram ]
!937 = metadata !{i32 786453, i32 0, metadata !"", i32 0, i32 0, i64 0, i64 0, i64 0, i32 0, null, metadata !938, i32 0, i32 0} ; [ DW_TAG_subroutine_type ]
!938 = metadata !{metadata !914, metadata !838, metadata !181}
!939 = metadata !{i32 786478, i32 0, metadata !817, metadata !"operator=", metadata !"operator=", metadata !"_ZN11ap_int_baseILi6ELb1ELb1EEaSEj", metadata !165, i32 1670, metadata !940, i1 false, i1 false, i32 0, i32 0, null, i32 256, i1 false, null, null, i32 0, metadata !177, i32 1670} ; [ DW_TAG_subprogram ]
!940 = metadata !{i32 786453, i32 0, metadata !"", i32 0, i32 0, i64 0, i64 0, i64 0, i32 0, null, metadata !941, i32 0, i32 0} ; [ DW_TAG_subroutine_type ]
!941 = metadata !{metadata !914, metadata !838, metadata !227}
!942 = metadata !{i32 786478, i32 0, metadata !817, metadata !"operator=", metadata !"operator=", metadata !"_ZN11ap_int_baseILi6ELb1ELb1EEaSEx", metadata !165, i32 1671, metadata !943, i1 false, i1 false, i32 0, i32 0, null, i32 256, i1 false, null, null, i32 0, metadata !177, i32 1671} ; [ DW_TAG_subprogram ]
!943 = metadata !{i32 786453, i32 0, metadata !"", i32 0, i32 0, i64 0, i64 0, i64 0, i32 0, null, metadata !944, i32 0, i32 0} ; [ DW_TAG_subroutine_type ]
!944 = metadata !{metadata !914, metadata !838, metadata !239}
!945 = metadata !{i32 786478, i32 0, metadata !817, metadata !"operator=", metadata !"operator=", metadata !"_ZN11ap_int_baseILi6ELb1ELb1EEaSEy", metadata !165, i32 1672, metadata !946, i1 false, i1 false, i32 0, i32 0, null, i32 256, i1 false, null, null, i32 0, metadata !177, i32 1672} ; [ DW_TAG_subprogram ]
!946 = metadata !{i32 786453, i32 0, metadata !"", i32 0, i32 0, i64 0, i64 0, i64 0, i32 0, null, metadata !947, i32 0, i32 0} ; [ DW_TAG_subroutine_type ]
!947 = metadata !{metadata !914, metadata !838, metadata !244}
!948 = metadata !{i32 786478, i32 0, metadata !817, metadata !"operator signed char", metadata !"operator signed char", metadata !"_ZNK11ap_int_baseILi6ELb1ELb1EEcvaEv", metadata !165, i32 1710, metadata !949, i1 false, i1 false, i32 0, i32 0, null, i32 256, i1 false, null, null, i32 0, metadata !177, i32 1710} ; [ DW_TAG_subprogram ]
!949 = metadata !{i32 786453, i32 0, metadata !"", i32 0, i32 0, i64 0, i64 0, i64 0, i32 0, null, metadata !950, i32 0, i32 0} ; [ DW_TAG_subroutine_type ]
!950 = metadata !{metadata !951, metadata !956}
!951 = metadata !{i32 786454, metadata !817, metadata !"RetType", metadata !165, i32 1458, i64 0, i64 0, i64 0, i32 0, metadata !952} ; [ DW_TAG_typedef ]
!952 = metadata !{i32 786454, metadata !953, metadata !"Type", metadata !165, i32 1423, i64 0, i64 0, i64 0, i32 0, metadata !208} ; [ DW_TAG_typedef ]
!953 = metadata !{i32 786434, null, metadata !"retval<1, true>", metadata !165, i32 1422, i64 8, i64 8, i32 0, i32 0, null, metadata !322, i32 0, null, metadata !954} ; [ DW_TAG_class_type ]
!954 = metadata !{metadata !955, metadata !182}
!955 = metadata !{i32 786480, null, metadata !"_AP_N", metadata !181, i64 1, null, i32 0, i32 0} ; [ DW_TAG_template_value_parameter ]
!956 = metadata !{i32 786447, i32 0, metadata !"", i32 0, i32 0, i64 64, i64 64, i64 0, i32 64, metadata !843} ; [ DW_TAG_pointer_type ]
!957 = metadata !{i32 786478, i32 0, metadata !817, metadata !"to_bool", metadata !"to_bool", metadata !"_ZNK11ap_int_baseILi6ELb1ELb1EE7to_boolEv", metadata !165, i32 1716, metadata !958, i1 false, i1 false, i32 0, i32 0, null, i32 256, i1 false, null, null, i32 0, metadata !177, i32 1716} ; [ DW_TAG_subprogram ]
!958 = metadata !{i32 786453, i32 0, metadata !"", i32 0, i32 0, i64 0, i64 0, i64 0, i32 0, null, metadata !959, i32 0, i32 0} ; [ DW_TAG_subroutine_type ]
!959 = metadata !{metadata !183, metadata !956}
!960 = metadata !{i32 786478, i32 0, metadata !817, metadata !"to_uchar", metadata !"to_uchar", metadata !"_ZNK11ap_int_baseILi6ELb1ELb1EE8to_ucharEv", metadata !165, i32 1717, metadata !961, i1 false, i1 false, i32 0, i32 0, null, i32 256, i1 false, null, null, i32 0, metadata !177, i32 1717} ; [ DW_TAG_subprogram ]
!961 = metadata !{i32 786453, i32 0, metadata !"", i32 0, i32 0, i64 0, i64 0, i64 0, i32 0, null, metadata !962, i32 0, i32 0} ; [ DW_TAG_subroutine_type ]
!962 = metadata !{metadata !212, metadata !956}
!963 = metadata !{i32 786478, i32 0, metadata !817, metadata !"to_char", metadata !"to_char", metadata !"_ZNK11ap_int_baseILi6ELb1ELb1EE7to_charEv", metadata !165, i32 1718, metadata !964, i1 false, i1 false, i32 0, i32 0, null, i32 256, i1 false, null, null, i32 0, metadata !177, i32 1718} ; [ DW_TAG_subprogram ]
!964 = metadata !{i32 786453, i32 0, metadata !"", i32 0, i32 0, i64 0, i64 0, i64 0, i32 0, null, metadata !965, i32 0, i32 0} ; [ DW_TAG_subroutine_type ]
!965 = metadata !{metadata !208, metadata !956}
!966 = metadata !{i32 786478, i32 0, metadata !817, metadata !"to_ushort", metadata !"to_ushort", metadata !"_ZNK11ap_int_baseILi6ELb1ELb1EE9to_ushortEv", metadata !165, i32 1719, metadata !967, i1 false, i1 false, i32 0, i32 0, null, i32 256, i1 false, null, null, i32 0, metadata !177, i32 1719} ; [ DW_TAG_subprogram ]
!967 = metadata !{i32 786453, i32 0, metadata !"", i32 0, i32 0, i64 0, i64 0, i64 0, i32 0, null, metadata !968, i32 0, i32 0} ; [ DW_TAG_subroutine_type ]
!968 = metadata !{metadata !220, metadata !956}
!969 = metadata !{i32 786478, i32 0, metadata !817, metadata !"to_short", metadata !"to_short", metadata !"_ZNK11ap_int_baseILi6ELb1ELb1EE8to_shortEv", metadata !165, i32 1720, metadata !970, i1 false, i1 false, i32 0, i32 0, null, i32 256, i1 false, null, null, i32 0, metadata !177, i32 1720} ; [ DW_TAG_subprogram ]
!970 = metadata !{i32 786453, i32 0, metadata !"", i32 0, i32 0, i64 0, i64 0, i64 0, i32 0, null, metadata !971, i32 0, i32 0} ; [ DW_TAG_subroutine_type ]
!971 = metadata !{metadata !216, metadata !956}
!972 = metadata !{i32 786478, i32 0, metadata !817, metadata !"to_int", metadata !"to_int", metadata !"_ZNK11ap_int_baseILi6ELb1ELb1EE6to_intEv", metadata !165, i32 1721, metadata !973, i1 false, i1 false, i32 0, i32 0, null, i32 256, i1 false, null, null, i32 0, metadata !177, i32 1721} ; [ DW_TAG_subprogram ]
!973 = metadata !{i32 786453, i32 0, metadata !"", i32 0, i32 0, i64 0, i64 0, i64 0, i32 0, null, metadata !974, i32 0, i32 0} ; [ DW_TAG_subroutine_type ]
!974 = metadata !{metadata !181, metadata !956}
!975 = metadata !{i32 786478, i32 0, metadata !817, metadata !"to_uint", metadata !"to_uint", metadata !"_ZNK11ap_int_baseILi6ELb1ELb1EE7to_uintEv", metadata !165, i32 1722, metadata !976, i1 false, i1 false, i32 0, i32 0, null, i32 256, i1 false, null, null, i32 0, metadata !177, i32 1722} ; [ DW_TAG_subprogram ]
!976 = metadata !{i32 786453, i32 0, metadata !"", i32 0, i32 0, i64 0, i64 0, i64 0, i32 0, null, metadata !977, i32 0, i32 0} ; [ DW_TAG_subroutine_type ]
!977 = metadata !{metadata !227, metadata !956}
!978 = metadata !{i32 786478, i32 0, metadata !817, metadata !"to_long", metadata !"to_long", metadata !"_ZNK11ap_int_baseILi6ELb1ELb1EE7to_longEv", metadata !165, i32 1723, metadata !979, i1 false, i1 false, i32 0, i32 0, null, i32 256, i1 false, null, null, i32 0, metadata !177, i32 1723} ; [ DW_TAG_subprogram ]
!979 = metadata !{i32 786453, i32 0, metadata !"", i32 0, i32 0, i64 0, i64 0, i64 0, i32 0, null, metadata !980, i32 0, i32 0} ; [ DW_TAG_subroutine_type ]
!980 = metadata !{metadata !231, metadata !956}
!981 = metadata !{i32 786478, i32 0, metadata !817, metadata !"to_ulong", metadata !"to_ulong", metadata !"_ZNK11ap_int_baseILi6ELb1ELb1EE8to_ulongEv", metadata !165, i32 1724, metadata !982, i1 false, i1 false, i32 0, i32 0, null, i32 256, i1 false, null, null, i32 0, metadata !177, i32 1724} ; [ DW_TAG_subprogram ]
!982 = metadata !{i32 786453, i32 0, metadata !"", i32 0, i32 0, i64 0, i64 0, i64 0, i32 0, null, metadata !983, i32 0, i32 0} ; [ DW_TAG_subroutine_type ]
!983 = metadata !{metadata !235, metadata !956}
!984 = metadata !{i32 786478, i32 0, metadata !817, metadata !"to_int64", metadata !"to_int64", metadata !"_ZNK11ap_int_baseILi6ELb1ELb1EE8to_int64Ev", metadata !165, i32 1725, metadata !985, i1 false, i1 false, i32 0, i32 0, null, i32 256, i1 false, null, null, i32 0, metadata !177, i32 1725} ; [ DW_TAG_subprogram ]
!985 = metadata !{i32 786453, i32 0, metadata !"", i32 0, i32 0, i64 0, i64 0, i64 0, i32 0, null, metadata !986, i32 0, i32 0} ; [ DW_TAG_subroutine_type ]
!986 = metadata !{metadata !239, metadata !956}
!987 = metadata !{i32 786478, i32 0, metadata !817, metadata !"to_uint64", metadata !"to_uint64", metadata !"_ZNK11ap_int_baseILi6ELb1ELb1EE9to_uint64Ev", metadata !165, i32 1726, metadata !988, i1 false, i1 false, i32 0, i32 0, null, i32 256, i1 false, null, null, i32 0, metadata !177, i32 1726} ; [ DW_TAG_subprogram ]
!988 = metadata !{i32 786453, i32 0, metadata !"", i32 0, i32 0, i64 0, i64 0, i64 0, i32 0, null, metadata !989, i32 0, i32 0} ; [ DW_TAG_subroutine_type ]
!989 = metadata !{metadata !244, metadata !956}
!990 = metadata !{i32 786478, i32 0, metadata !817, metadata !"to_double", metadata !"to_double", metadata !"_ZNK11ap_int_baseILi6ELb1ELb1EE9to_doubleEv", metadata !165, i32 1727, metadata !991, i1 false, i1 false, i32 0, i32 0, null, i32 256, i1 false, null, null, i32 0, metadata !177, i32 1727} ; [ DW_TAG_subprogram ]
!991 = metadata !{i32 786453, i32 0, metadata !"", i32 0, i32 0, i64 0, i64 0, i64 0, i32 0, null, metadata !992, i32 0, i32 0} ; [ DW_TAG_subroutine_type ]
!992 = metadata !{metadata !258, metadata !956}
!993 = metadata !{i32 786478, i32 0, metadata !817, metadata !"length", metadata !"length", metadata !"_ZNK11ap_int_baseILi6ELb1ELb1EE6lengthEv", metadata !165, i32 1741, metadata !973, i1 false, i1 false, i32 0, i32 0, null, i32 256, i1 false, null, null, i32 0, metadata !177, i32 1741} ; [ DW_TAG_subprogram ]
!994 = metadata !{i32 786478, i32 0, metadata !817, metadata !"length", metadata !"length", metadata !"_ZNVK11ap_int_baseILi6ELb1ELb1EE6lengthEv", metadata !165, i32 1742, metadata !995, i1 false, i1 false, i32 0, i32 0, null, i32 256, i1 false, null, null, i32 0, metadata !177, i32 1742} ; [ DW_TAG_subprogram ]
!995 = metadata !{i32 786453, i32 0, metadata !"", i32 0, i32 0, i64 0, i64 0, i64 0, i32 0, null, metadata !996, i32 0, i32 0} ; [ DW_TAG_subroutine_type ]
!996 = metadata !{metadata !181, metadata !997}
!997 = metadata !{i32 786447, i32 0, metadata !"", i32 0, i32 0, i64 64, i64 64, i64 0, i32 64, metadata !850} ; [ DW_TAG_pointer_type ]
!998 = metadata !{i32 786478, i32 0, metadata !817, metadata !"reverse", metadata !"reverse", metadata !"_ZN11ap_int_baseILi6ELb1ELb1EE7reverseEv", metadata !165, i32 1747, metadata !999, i1 false, i1 false, i32 0, i32 0, null, i32 256, i1 false, null, null, i32 0, metadata !177, i32 1747} ; [ DW_TAG_subprogram ]
!999 = metadata !{i32 786453, i32 0, metadata !"", i32 0, i32 0, i64 0, i64 0, i64 0, i32 0, null, metadata !1000, i32 0, i32 0} ; [ DW_TAG_subroutine_type ]
!1000 = metadata !{metadata !914, metadata !838}
!1001 = metadata !{i32 786478, i32 0, metadata !817, metadata !"iszero", metadata !"iszero", metadata !"_ZNK11ap_int_baseILi6ELb1ELb1EE6iszeroEv", metadata !165, i32 1753, metadata !958, i1 false, i1 false, i32 0, i32 0, null, i32 256, i1 false, null, null, i32 0, metadata !177, i32 1753} ; [ DW_TAG_subprogram ]
!1002 = metadata !{i32 786478, i32 0, metadata !817, metadata !"is_zero", metadata !"is_zero", metadata !"_ZNK11ap_int_baseILi6ELb1ELb1EE7is_zeroEv", metadata !165, i32 1758, metadata !958, i1 false, i1 false, i32 0, i32 0, null, i32 256, i1 false, null, null, i32 0, metadata !177, i32 1758} ; [ DW_TAG_subprogram ]
!1003 = metadata !{i32 786478, i32 0, metadata !817, metadata !"sign", metadata !"sign", metadata !"_ZNK11ap_int_baseILi6ELb1ELb1EE4signEv", metadata !165, i32 1763, metadata !958, i1 false, i1 false, i32 0, i32 0, null, i32 256, i1 false, null, null, i32 0, metadata !177, i32 1763} ; [ DW_TAG_subprogram ]
!1004 = metadata !{i32 786478, i32 0, metadata !817, metadata !"clear", metadata !"clear", metadata !"_ZN11ap_int_baseILi6ELb1ELb1EE5clearEi", metadata !165, i32 1771, metadata !868, i1 false, i1 false, i32 0, i32 0, null, i32 256, i1 false, null, null, i32 0, metadata !177, i32 1771} ; [ DW_TAG_subprogram ]
!1005 = metadata !{i32 786478, i32 0, metadata !817, metadata !"invert", metadata !"invert", metadata !"_ZN11ap_int_baseILi6ELb1ELb1EE6invertEi", metadata !165, i32 1777, metadata !868, i1 false, i1 false, i32 0, i32 0, null, i32 256, i1 false, null, null, i32 0, metadata !177, i32 1777} ; [ DW_TAG_subprogram ]
!1006 = metadata !{i32 786478, i32 0, metadata !817, metadata !"test", metadata !"test", metadata !"_ZNK11ap_int_baseILi6ELb1ELb1EE4testEi", metadata !165, i32 1785, metadata !1007, i1 false, i1 false, i32 0, i32 0, null, i32 256, i1 false, null, null, i32 0, metadata !177, i32 1785} ; [ DW_TAG_subprogram ]
!1007 = metadata !{i32 786453, i32 0, metadata !"", i32 0, i32 0, i64 0, i64 0, i64 0, i32 0, null, metadata !1008, i32 0, i32 0} ; [ DW_TAG_subroutine_type ]
!1008 = metadata !{metadata !183, metadata !956, metadata !181}
!1009 = metadata !{i32 786478, i32 0, metadata !817, metadata !"set", metadata !"set", metadata !"_ZN11ap_int_baseILi6ELb1ELb1EE3setEi", metadata !165, i32 1791, metadata !868, i1 false, i1 false, i32 0, i32 0, null, i32 256, i1 false, null, null, i32 0, metadata !177, i32 1791} ; [ DW_TAG_subprogram ]
!1010 = metadata !{i32 786478, i32 0, metadata !817, metadata !"set", metadata !"set", metadata !"_ZN11ap_int_baseILi6ELb1ELb1EE3setEib", metadata !165, i32 1797, metadata !1011, i1 false, i1 false, i32 0, i32 0, null, i32 256, i1 false, null, null, i32 0, metadata !177, i32 1797} ; [ DW_TAG_subprogram ]
!1011 = metadata !{i32 786453, i32 0, metadata !"", i32 0, i32 0, i64 0, i64 0, i64 0, i32 0, null, metadata !1012, i32 0, i32 0} ; [ DW_TAG_subroutine_type ]
!1012 = metadata !{null, metadata !838, metadata !181, metadata !183}
!1013 = metadata !{i32 786478, i32 0, metadata !817, metadata !"lrotate", metadata !"lrotate", metadata !"_ZN11ap_int_baseILi6ELb1ELb1EE7lrotateEi", metadata !165, i32 1804, metadata !868, i1 false, i1 false, i32 0, i32 0, null, i32 256, i1 false, null, null, i32 0, metadata !177, i32 1804} ; [ DW_TAG_subprogram ]
!1014 = metadata !{i32 786478, i32 0, metadata !817, metadata !"rrotate", metadata !"rrotate", metadata !"_ZN11ap_int_baseILi6ELb1ELb1EE7rrotateEi", metadata !165, i32 1813, metadata !868, i1 false, i1 false, i32 0, i32 0, null, i32 256, i1 false, null, null, i32 0, metadata !177, i32 1813} ; [ DW_TAG_subprogram ]
!1015 = metadata !{i32 786478, i32 0, metadata !817, metadata !"set_bit", metadata !"set_bit", metadata !"_ZN11ap_int_baseILi6ELb1ELb1EE7set_bitEib", metadata !165, i32 1821, metadata !1011, i1 false, i1 false, i32 0, i32 0, null, i32 256, i1 false, null, null, i32 0, metadata !177, i32 1821} ; [ DW_TAG_subprogram ]
!1016 = metadata !{i32 786478, i32 0, metadata !817, metadata !"get_bit", metadata !"get_bit", metadata !"_ZNK11ap_int_baseILi6ELb1ELb1EE7get_bitEi", metadata !165, i32 1826, metadata !1007, i1 false, i1 false, i32 0, i32 0, null, i32 256, i1 false, null, null, i32 0, metadata !177, i32 1826} ; [ DW_TAG_subprogram ]
!1017 = metadata !{i32 786478, i32 0, metadata !817, metadata !"b_not", metadata !"b_not", metadata !"_ZN11ap_int_baseILi6ELb1ELb1EE5b_notEv", metadata !165, i32 1831, metadata !836, i1 false, i1 false, i32 0, i32 0, null, i32 256, i1 false, null, null, i32 0, metadata !177, i32 1831} ; [ DW_TAG_subprogram ]
!1018 = metadata !{i32 786478, i32 0, metadata !817, metadata !"countLeadingZeros", metadata !"countLeadingZeros", metadata !"_ZN11ap_int_baseILi6ELb1ELb1EE17countLeadingZerosEv", metadata !165, i32 1838, metadata !1019, i1 false, i1 false, i32 0, i32 0, null, i32 256, i1 false, null, null, i32 0, metadata !177, i32 1838} ; [ DW_TAG_subprogram ]
!1019 = metadata !{i32 786453, i32 0, metadata !"", i32 0, i32 0, i64 0, i64 0, i64 0, i32 0, null, metadata !1020, i32 0, i32 0} ; [ DW_TAG_subroutine_type ]
!1020 = metadata !{metadata !181, metadata !838}
!1021 = metadata !{i32 786478, i32 0, metadata !817, metadata !"operator++", metadata !"operator++", metadata !"_ZN11ap_int_baseILi6ELb1ELb1EEppEv", metadata !165, i32 1895, metadata !999, i1 false, i1 false, i32 0, i32 0, null, i32 256, i1 false, null, null, i32 0, metadata !177, i32 1895} ; [ DW_TAG_subprogram ]
!1022 = metadata !{i32 786478, i32 0, metadata !817, metadata !"operator--", metadata !"operator--", metadata !"_ZN11ap_int_baseILi6ELb1ELb1EEmmEv", metadata !165, i32 1899, metadata !999, i1 false, i1 false, i32 0, i32 0, null, i32 256, i1 false, null, null, i32 0, metadata !177, i32 1899} ; [ DW_TAG_subprogram ]
!1023 = metadata !{i32 786478, i32 0, metadata !817, metadata !"operator++", metadata !"operator++", metadata !"_ZN11ap_int_baseILi6ELb1ELb1EEppEi", metadata !165, i32 1907, metadata !1024, i1 false, i1 false, i32 0, i32 0, null, i32 256, i1 false, null, null, i32 0, metadata !177, i32 1907} ; [ DW_TAG_subprogram ]
!1024 = metadata !{i32 786453, i32 0, metadata !"", i32 0, i32 0, i64 0, i64 0, i64 0, i32 0, null, metadata !1025, i32 0, i32 0} ; [ DW_TAG_subroutine_type ]
!1025 = metadata !{metadata !843, metadata !838, metadata !181}
!1026 = metadata !{i32 786478, i32 0, metadata !817, metadata !"operator--", metadata !"operator--", metadata !"_ZN11ap_int_baseILi6ELb1ELb1EEmmEi", metadata !165, i32 1912, metadata !1024, i1 false, i1 false, i32 0, i32 0, null, i32 256, i1 false, null, null, i32 0, metadata !177, i32 1912} ; [ DW_TAG_subprogram ]
!1027 = metadata !{i32 786478, i32 0, metadata !817, metadata !"operator+", metadata !"operator+", metadata !"_ZNK11ap_int_baseILi6ELb1ELb1EEpsEv", metadata !165, i32 1921, metadata !1028, i1 false, i1 false, i32 0, i32 0, null, i32 256, i1 false, null, null, i32 0, metadata !177, i32 1921} ; [ DW_TAG_subprogram ]
!1028 = metadata !{i32 786453, i32 0, metadata !"", i32 0, i32 0, i64 0, i64 0, i64 0, i32 0, null, metadata !1029, i32 0, i32 0} ; [ DW_TAG_subroutine_type ]
!1029 = metadata !{metadata !817, metadata !956}
!1030 = metadata !{i32 786478, i32 0, metadata !817, metadata !"operator!", metadata !"operator!", metadata !"_ZNK11ap_int_baseILi6ELb1ELb1EEntEv", metadata !165, i32 1927, metadata !958, i1 false, i1 false, i32 0, i32 0, null, i32 256, i1 false, null, null, i32 0, metadata !177, i32 1927} ; [ DW_TAG_subprogram ]
!1031 = metadata !{i32 786478, i32 0, metadata !817, metadata !"operator-", metadata !"operator-", metadata !"_ZNK11ap_int_baseILi6ELb1ELb1EEngEv", metadata !165, i32 1932, metadata !1032, i1 false, i1 false, i32 0, i32 0, null, i32 256, i1 false, null, null, i32 0, metadata !177, i32 1932} ; [ DW_TAG_subprogram ]
!1032 = metadata !{i32 786453, i32 0, metadata !"", i32 0, i32 0, i64 0, i64 0, i64 0, i32 0, null, metadata !1033, i32 0, i32 0} ; [ DW_TAG_subroutine_type ]
!1033 = metadata !{metadata !1034, metadata !956}
!1034 = metadata !{i32 786434, null, metadata !"ap_int_base<7, true, true>", metadata !165, i32 1453, i64 8, i64 8, i32 0, i32 0, null, metadata !1035, i32 0, null, metadata !1808} ; [ DW_TAG_class_type ]
!1035 = metadata !{metadata !1036, metadata !1052, metadata !1056, metadata !1063, metadata !1069, metadata !1072, metadata !1075, metadata !1078, metadata !1081, metadata !1084, metadata !1087, metadata !1090, metadata !1093, metadata !1096, metadata !1099, metadata !1102, metadata !1105, metadata !1108, metadata !1111, metadata !1114, metadata !1117, metadata !1121, metadata !1124, metadata !1127, metadata !1128, metadata !1132, metadata !1135, metadata !1138, metadata !1141, metadata !1144, metadata !1147, metadata !1150, metadata !1153, metadata !1156, metadata !1159, metadata !1162, metadata !1165, metadata !1170, metadata !1173, metadata !1176, metadata !1179, metadata !1182, metadata !1185, metadata !1188, metadata !1191, metadata !1194, metadata !1197, metadata !1200, metadata !1203, metadata !1206, metadata !1207, metadata !1211, metadata !1214, metadata !1215, metadata !1216, metadata !1217, metadata !1218, metadata !1219, metadata !1222, metadata !1223, metadata !1226, metadata !1227, metadata !1228, metadata !1229, metadata !1230, metadata !1231, metadata !1234, metadata !1235, metadata !1236, metadata !1239, metadata !1240, metadata !1243, metadata !1244, metadata !1768, metadata !1772, metadata !1773, metadata !1776, metadata !1777, metadata !1781, metadata !1782, metadata !1783, metadata !1784, metadata !1787, metadata !1788, metadata !1789, metadata !1790, metadata !1791, metadata !1792, metadata !1793, metadata !1794, metadata !1795, metadata !1796, metadata !1797, metadata !1798, metadata !1801, metadata !1804, metadata !1807}
!1036 = metadata !{i32 786460, metadata !1034, null, metadata !165, i32 0, i64 0, i64 0, i64 0, i32 0, metadata !1037} ; [ DW_TAG_inheritance ]
!1037 = metadata !{i32 786434, null, metadata !"ssdm_int<7 + 1024 * 0, true>", metadata !169, i32 9, i64 8, i64 8, i32 0, i32 0, null, metadata !1038, i32 0, null, metadata !1050} ; [ DW_TAG_class_type ]
!1038 = metadata !{metadata !1039, metadata !1041, metadata !1045}
!1039 = metadata !{i32 786445, metadata !1037, metadata !"V", metadata !169, i32 9, i64 7, i64 8, i64 0, i32 0, metadata !1040} ; [ DW_TAG_member ]
!1040 = metadata !{i32 786468, null, metadata !"int7", null, i32 0, i64 7, i64 8, i64 0, i32 0, i32 5} ; [ DW_TAG_base_type ]
!1041 = metadata !{i32 786478, i32 0, metadata !1037, metadata !"ssdm_int", metadata !"ssdm_int", metadata !"", metadata !169, i32 9, metadata !1042, i1 false, i1 false, i32 0, i32 0, null, i32 256, i1 false, null, null, i32 0, metadata !177, i32 9} ; [ DW_TAG_subprogram ]
!1042 = metadata !{i32 786453, i32 0, metadata !"", i32 0, i32 0, i64 0, i64 0, i64 0, i32 0, null, metadata !1043, i32 0, i32 0} ; [ DW_TAG_subroutine_type ]
!1043 = metadata !{null, metadata !1044}
!1044 = metadata !{i32 786447, i32 0, metadata !"", i32 0, i32 0, i64 64, i64 64, i64 0, i32 64, metadata !1037} ; [ DW_TAG_pointer_type ]
!1045 = metadata !{i32 786478, i32 0, metadata !1037, metadata !"ssdm_int", metadata !"ssdm_int", metadata !"", metadata !169, i32 9, metadata !1046, i1 false, i1 false, i32 0, i32 0, null, i32 320, i1 false, null, null, i32 0, metadata !177, i32 9} ; [ DW_TAG_subprogram ]
!1046 = metadata !{i32 786453, i32 0, metadata !"", i32 0, i32 0, i64 0, i64 0, i64 0, i32 0, null, metadata !1047, i32 0, i32 0} ; [ DW_TAG_subroutine_type ]
!1047 = metadata !{null, metadata !1044, metadata !1048}
!1048 = metadata !{i32 786448, null, null, null, i32 0, i64 0, i64 0, i64 0, i32 0, metadata !1049} ; [ DW_TAG_reference_type ]
!1049 = metadata !{i32 786470, null, metadata !"", null, i32 0, i64 0, i64 0, i64 0, i32 0, metadata !1037} ; [ DW_TAG_const_type ]
!1050 = metadata !{metadata !1051, metadata !182}
!1051 = metadata !{i32 786480, null, metadata !"_AP_N", metadata !181, i64 7, null, i32 0, i32 0} ; [ DW_TAG_template_value_parameter ]
!1052 = metadata !{i32 786478, i32 0, metadata !1034, metadata !"ap_int_base", metadata !"ap_int_base", metadata !"", metadata !165, i32 1494, metadata !1053, i1 false, i1 false, i32 0, i32 0, null, i32 256, i1 false, null, null, i32 0, metadata !177, i32 1494} ; [ DW_TAG_subprogram ]
!1053 = metadata !{i32 786453, i32 0, metadata !"", i32 0, i32 0, i64 0, i64 0, i64 0, i32 0, null, metadata !1054, i32 0, i32 0} ; [ DW_TAG_subroutine_type ]
!1054 = metadata !{null, metadata !1055}
!1055 = metadata !{i32 786447, i32 0, metadata !"", i32 0, i32 0, i64 64, i64 64, i64 0, i32 64, metadata !1034} ; [ DW_TAG_pointer_type ]
!1056 = metadata !{i32 786478, i32 0, metadata !1034, metadata !"ap_int_base<7, true>", metadata !"ap_int_base<7, true>", metadata !"", metadata !165, i32 1506, metadata !1057, i1 false, i1 false, i32 0, i32 0, null, i32 256, i1 false, null, metadata !1061, i32 0, metadata !177, i32 1506} ; [ DW_TAG_subprogram ]
!1057 = metadata !{i32 786453, i32 0, metadata !"", i32 0, i32 0, i64 0, i64 0, i64 0, i32 0, null, metadata !1058, i32 0, i32 0} ; [ DW_TAG_subroutine_type ]
!1058 = metadata !{null, metadata !1055, metadata !1059}
!1059 = metadata !{i32 786448, null, null, null, i32 0, i64 0, i64 0, i64 0, i32 0, metadata !1060} ; [ DW_TAG_reference_type ]
!1060 = metadata !{i32 786470, null, metadata !"", null, i32 0, i64 0, i64 0, i64 0, i32 0, metadata !1034} ; [ DW_TAG_const_type ]
!1061 = metadata !{metadata !1062, metadata !195}
!1062 = metadata !{i32 786480, null, metadata !"_AP_W2", metadata !181, i64 7, null, i32 0, i32 0} ; [ DW_TAG_template_value_parameter ]
!1063 = metadata !{i32 786478, i32 0, metadata !1034, metadata !"ap_int_base<7, true>", metadata !"ap_int_base<7, true>", metadata !"", metadata !165, i32 1509, metadata !1064, i1 false, i1 false, i32 0, i32 0, null, i32 256, i1 false, null, metadata !1061, i32 0, metadata !177, i32 1509} ; [ DW_TAG_subprogram ]
!1064 = metadata !{i32 786453, i32 0, metadata !"", i32 0, i32 0, i64 0, i64 0, i64 0, i32 0, null, metadata !1065, i32 0, i32 0} ; [ DW_TAG_subroutine_type ]
!1065 = metadata !{null, metadata !1055, metadata !1066}
!1066 = metadata !{i32 786448, null, null, null, i32 0, i64 0, i64 0, i64 0, i32 0, metadata !1067} ; [ DW_TAG_reference_type ]
!1067 = metadata !{i32 786470, null, metadata !"", null, i32 0, i64 0, i64 0, i64 0, i32 0, metadata !1068} ; [ DW_TAG_const_type ]
!1068 = metadata !{i32 786485, null, metadata !"", null, i32 0, i64 0, i64 0, i64 0, i32 0, metadata !1034} ; [ DW_TAG_volatile_type ]
!1069 = metadata !{i32 786478, i32 0, metadata !1034, metadata !"ap_int_base", metadata !"ap_int_base", metadata !"", metadata !165, i32 1516, metadata !1070, i1 false, i1 false, i32 0, i32 0, null, i32 384, i1 false, null, null, i32 0, metadata !177, i32 1516} ; [ DW_TAG_subprogram ]
!1070 = metadata !{i32 786453, i32 0, metadata !"", i32 0, i32 0, i64 0, i64 0, i64 0, i32 0, null, metadata !1071, i32 0, i32 0} ; [ DW_TAG_subroutine_type ]
!1071 = metadata !{null, metadata !1055, metadata !183}
!1072 = metadata !{i32 786478, i32 0, metadata !1034, metadata !"ap_int_base", metadata !"ap_int_base", metadata !"", metadata !165, i32 1517, metadata !1073, i1 false, i1 false, i32 0, i32 0, null, i32 384, i1 false, null, null, i32 0, metadata !177, i32 1517} ; [ DW_TAG_subprogram ]
!1073 = metadata !{i32 786453, i32 0, metadata !"", i32 0, i32 0, i64 0, i64 0, i64 0, i32 0, null, metadata !1074, i32 0, i32 0} ; [ DW_TAG_subroutine_type ]
!1074 = metadata !{null, metadata !1055, metadata !208}
!1075 = metadata !{i32 786478, i32 0, metadata !1034, metadata !"ap_int_base", metadata !"ap_int_base", metadata !"", metadata !165, i32 1518, metadata !1076, i1 false, i1 false, i32 0, i32 0, null, i32 384, i1 false, null, null, i32 0, metadata !177, i32 1518} ; [ DW_TAG_subprogram ]
!1076 = metadata !{i32 786453, i32 0, metadata !"", i32 0, i32 0, i64 0, i64 0, i64 0, i32 0, null, metadata !1077, i32 0, i32 0} ; [ DW_TAG_subroutine_type ]
!1077 = metadata !{null, metadata !1055, metadata !212}
!1078 = metadata !{i32 786478, i32 0, metadata !1034, metadata !"ap_int_base", metadata !"ap_int_base", metadata !"", metadata !165, i32 1519, metadata !1079, i1 false, i1 false, i32 0, i32 0, null, i32 384, i1 false, null, null, i32 0, metadata !177, i32 1519} ; [ DW_TAG_subprogram ]
!1079 = metadata !{i32 786453, i32 0, metadata !"", i32 0, i32 0, i64 0, i64 0, i64 0, i32 0, null, metadata !1080, i32 0, i32 0} ; [ DW_TAG_subroutine_type ]
!1080 = metadata !{null, metadata !1055, metadata !216}
!1081 = metadata !{i32 786478, i32 0, metadata !1034, metadata !"ap_int_base", metadata !"ap_int_base", metadata !"", metadata !165, i32 1520, metadata !1082, i1 false, i1 false, i32 0, i32 0, null, i32 384, i1 false, null, null, i32 0, metadata !177, i32 1520} ; [ DW_TAG_subprogram ]
!1082 = metadata !{i32 786453, i32 0, metadata !"", i32 0, i32 0, i64 0, i64 0, i64 0, i32 0, null, metadata !1083, i32 0, i32 0} ; [ DW_TAG_subroutine_type ]
!1083 = metadata !{null, metadata !1055, metadata !220}
!1084 = metadata !{i32 786478, i32 0, metadata !1034, metadata !"ap_int_base", metadata !"ap_int_base", metadata !"", metadata !165, i32 1521, metadata !1085, i1 false, i1 false, i32 0, i32 0, null, i32 384, i1 false, null, null, i32 0, metadata !177, i32 1521} ; [ DW_TAG_subprogram ]
!1085 = metadata !{i32 786453, i32 0, metadata !"", i32 0, i32 0, i64 0, i64 0, i64 0, i32 0, null, metadata !1086, i32 0, i32 0} ; [ DW_TAG_subroutine_type ]
!1086 = metadata !{null, metadata !1055, metadata !181}
!1087 = metadata !{i32 786478, i32 0, metadata !1034, metadata !"ap_int_base", metadata !"ap_int_base", metadata !"", metadata !165, i32 1522, metadata !1088, i1 false, i1 false, i32 0, i32 0, null, i32 384, i1 false, null, null, i32 0, metadata !177, i32 1522} ; [ DW_TAG_subprogram ]
!1088 = metadata !{i32 786453, i32 0, metadata !"", i32 0, i32 0, i64 0, i64 0, i64 0, i32 0, null, metadata !1089, i32 0, i32 0} ; [ DW_TAG_subroutine_type ]
!1089 = metadata !{null, metadata !1055, metadata !227}
!1090 = metadata !{i32 786478, i32 0, metadata !1034, metadata !"ap_int_base", metadata !"ap_int_base", metadata !"", metadata !165, i32 1523, metadata !1091, i1 false, i1 false, i32 0, i32 0, null, i32 384, i1 false, null, null, i32 0, metadata !177, i32 1523} ; [ DW_TAG_subprogram ]
!1091 = metadata !{i32 786453, i32 0, metadata !"", i32 0, i32 0, i64 0, i64 0, i64 0, i32 0, null, metadata !1092, i32 0, i32 0} ; [ DW_TAG_subroutine_type ]
!1092 = metadata !{null, metadata !1055, metadata !231}
!1093 = metadata !{i32 786478, i32 0, metadata !1034, metadata !"ap_int_base", metadata !"ap_int_base", metadata !"", metadata !165, i32 1524, metadata !1094, i1 false, i1 false, i32 0, i32 0, null, i32 384, i1 false, null, null, i32 0, metadata !177, i32 1524} ; [ DW_TAG_subprogram ]
!1094 = metadata !{i32 786453, i32 0, metadata !"", i32 0, i32 0, i64 0, i64 0, i64 0, i32 0, null, metadata !1095, i32 0, i32 0} ; [ DW_TAG_subroutine_type ]
!1095 = metadata !{null, metadata !1055, metadata !235}
!1096 = metadata !{i32 786478, i32 0, metadata !1034, metadata !"ap_int_base", metadata !"ap_int_base", metadata !"", metadata !165, i32 1525, metadata !1097, i1 false, i1 false, i32 0, i32 0, null, i32 384, i1 false, null, null, i32 0, metadata !177, i32 1525} ; [ DW_TAG_subprogram ]
!1097 = metadata !{i32 786453, i32 0, metadata !"", i32 0, i32 0, i64 0, i64 0, i64 0, i32 0, null, metadata !1098, i32 0, i32 0} ; [ DW_TAG_subroutine_type ]
!1098 = metadata !{null, metadata !1055, metadata !239}
!1099 = metadata !{i32 786478, i32 0, metadata !1034, metadata !"ap_int_base", metadata !"ap_int_base", metadata !"", metadata !165, i32 1526, metadata !1100, i1 false, i1 false, i32 0, i32 0, null, i32 384, i1 false, null, null, i32 0, metadata !177, i32 1526} ; [ DW_TAG_subprogram ]
!1100 = metadata !{i32 786453, i32 0, metadata !"", i32 0, i32 0, i64 0, i64 0, i64 0, i32 0, null, metadata !1101, i32 0, i32 0} ; [ DW_TAG_subroutine_type ]
!1101 = metadata !{null, metadata !1055, metadata !244}
!1102 = metadata !{i32 786478, i32 0, metadata !1034, metadata !"ap_int_base", metadata !"ap_int_base", metadata !"", metadata !165, i32 1527, metadata !1103, i1 false, i1 false, i32 0, i32 0, null, i32 384, i1 false, null, null, i32 0, metadata !177, i32 1527} ; [ DW_TAG_subprogram ]
!1103 = metadata !{i32 786453, i32 0, metadata !"", i32 0, i32 0, i64 0, i64 0, i64 0, i32 0, null, metadata !1104, i32 0, i32 0} ; [ DW_TAG_subroutine_type ]
!1104 = metadata !{null, metadata !1055, metadata !249}
!1105 = metadata !{i32 786478, i32 0, metadata !1034, metadata !"ap_int_base", metadata !"ap_int_base", metadata !"", metadata !165, i32 1528, metadata !1106, i1 false, i1 false, i32 0, i32 0, null, i32 384, i1 false, null, null, i32 0, metadata !177, i32 1528} ; [ DW_TAG_subprogram ]
!1106 = metadata !{i32 786453, i32 0, metadata !"", i32 0, i32 0, i64 0, i64 0, i64 0, i32 0, null, metadata !1107, i32 0, i32 0} ; [ DW_TAG_subroutine_type ]
!1107 = metadata !{null, metadata !1055, metadata !254}
!1108 = metadata !{i32 786478, i32 0, metadata !1034, metadata !"ap_int_base", metadata !"ap_int_base", metadata !"", metadata !165, i32 1529, metadata !1109, i1 false, i1 false, i32 0, i32 0, null, i32 384, i1 false, null, null, i32 0, metadata !177, i32 1529} ; [ DW_TAG_subprogram ]
!1109 = metadata !{i32 786453, i32 0, metadata !"", i32 0, i32 0, i64 0, i64 0, i64 0, i32 0, null, metadata !1110, i32 0, i32 0} ; [ DW_TAG_subroutine_type ]
!1110 = metadata !{null, metadata !1055, metadata !258}
!1111 = metadata !{i32 786478, i32 0, metadata !1034, metadata !"ap_int_base", metadata !"ap_int_base", metadata !"", metadata !165, i32 1556, metadata !1112, i1 false, i1 false, i32 0, i32 0, null, i32 256, i1 false, null, null, i32 0, metadata !177, i32 1556} ; [ DW_TAG_subprogram ]
!1112 = metadata !{i32 786453, i32 0, metadata !"", i32 0, i32 0, i64 0, i64 0, i64 0, i32 0, null, metadata !1113, i32 0, i32 0} ; [ DW_TAG_subroutine_type ]
!1113 = metadata !{null, metadata !1055, metadata !262}
!1114 = metadata !{i32 786478, i32 0, metadata !1034, metadata !"ap_int_base", metadata !"ap_int_base", metadata !"", metadata !165, i32 1563, metadata !1115, i1 false, i1 false, i32 0, i32 0, null, i32 256, i1 false, null, null, i32 0, metadata !177, i32 1563} ; [ DW_TAG_subprogram ]
!1115 = metadata !{i32 786453, i32 0, metadata !"", i32 0, i32 0, i64 0, i64 0, i64 0, i32 0, null, metadata !1116, i32 0, i32 0} ; [ DW_TAG_subroutine_type ]
!1116 = metadata !{null, metadata !1055, metadata !262, metadata !208}
!1117 = metadata !{i32 786478, i32 0, metadata !1034, metadata !"read", metadata !"read", metadata !"_ZNV11ap_int_baseILi7ELb1ELb1EE4readEv", metadata !165, i32 1584, metadata !1118, i1 false, i1 false, i32 0, i32 0, null, i32 256, i1 false, null, null, i32 0, metadata !177, i32 1584} ; [ DW_TAG_subprogram ]
!1118 = metadata !{i32 786453, i32 0, metadata !"", i32 0, i32 0, i64 0, i64 0, i64 0, i32 0, null, metadata !1119, i32 0, i32 0} ; [ DW_TAG_subroutine_type ]
!1119 = metadata !{metadata !1034, metadata !1120}
!1120 = metadata !{i32 786447, i32 0, metadata !"", i32 0, i32 0, i64 64, i64 64, i64 0, i32 64, metadata !1068} ; [ DW_TAG_pointer_type ]
!1121 = metadata !{i32 786478, i32 0, metadata !1034, metadata !"write", metadata !"write", metadata !"_ZNV11ap_int_baseILi7ELb1ELb1EE5writeERKS0_", metadata !165, i32 1590, metadata !1122, i1 false, i1 false, i32 0, i32 0, null, i32 256, i1 false, null, null, i32 0, metadata !177, i32 1590} ; [ DW_TAG_subprogram ]
!1122 = metadata !{i32 786453, i32 0, metadata !"", i32 0, i32 0, i64 0, i64 0, i64 0, i32 0, null, metadata !1123, i32 0, i32 0} ; [ DW_TAG_subroutine_type ]
!1123 = metadata !{null, metadata !1120, metadata !1059}
!1124 = metadata !{i32 786478, i32 0, metadata !1034, metadata !"operator=", metadata !"operator=", metadata !"_ZNV11ap_int_baseILi7ELb1ELb1EEaSERVKS0_", metadata !165, i32 1602, metadata !1125, i1 false, i1 false, i32 0, i32 0, null, i32 256, i1 false, null, null, i32 0, metadata !177, i32 1602} ; [ DW_TAG_subprogram ]
!1125 = metadata !{i32 786453, i32 0, metadata !"", i32 0, i32 0, i64 0, i64 0, i64 0, i32 0, null, metadata !1126, i32 0, i32 0} ; [ DW_TAG_subroutine_type ]
!1126 = metadata !{null, metadata !1120, metadata !1066}
!1127 = metadata !{i32 786478, i32 0, metadata !1034, metadata !"operator=", metadata !"operator=", metadata !"_ZNV11ap_int_baseILi7ELb1ELb1EEaSERKS0_", metadata !165, i32 1611, metadata !1122, i1 false, i1 false, i32 0, i32 0, null, i32 256, i1 false, null, null, i32 0, metadata !177, i32 1611} ; [ DW_TAG_subprogram ]
!1128 = metadata !{i32 786478, i32 0, metadata !1034, metadata !"operator=", metadata !"operator=", metadata !"_ZN11ap_int_baseILi7ELb1ELb1EEaSERVKS0_", metadata !165, i32 1634, metadata !1129, i1 false, i1 false, i32 0, i32 0, null, i32 256, i1 false, null, null, i32 0, metadata !177, i32 1634} ; [ DW_TAG_subprogram ]
!1129 = metadata !{i32 786453, i32 0, metadata !"", i32 0, i32 0, i64 0, i64 0, i64 0, i32 0, null, metadata !1130, i32 0, i32 0} ; [ DW_TAG_subroutine_type ]
!1130 = metadata !{metadata !1131, metadata !1055, metadata !1066}
!1131 = metadata !{i32 786448, null, null, null, i32 0, i64 0, i64 0, i64 0, i32 0, metadata !1034} ; [ DW_TAG_reference_type ]
!1132 = metadata !{i32 786478, i32 0, metadata !1034, metadata !"operator=", metadata !"operator=", metadata !"_ZN11ap_int_baseILi7ELb1ELb1EEaSERKS0_", metadata !165, i32 1639, metadata !1133, i1 false, i1 false, i32 0, i32 0, null, i32 256, i1 false, null, null, i32 0, metadata !177, i32 1639} ; [ DW_TAG_subprogram ]
!1133 = metadata !{i32 786453, i32 0, metadata !"", i32 0, i32 0, i64 0, i64 0, i64 0, i32 0, null, metadata !1134, i32 0, i32 0} ; [ DW_TAG_subroutine_type ]
!1134 = metadata !{metadata !1131, metadata !1055, metadata !1059}
!1135 = metadata !{i32 786478, i32 0, metadata !1034, metadata !"operator=", metadata !"operator=", metadata !"_ZN11ap_int_baseILi7ELb1ELb1EEaSEPKc", metadata !165, i32 1643, metadata !1136, i1 false, i1 false, i32 0, i32 0, null, i32 256, i1 false, null, null, i32 0, metadata !177, i32 1643} ; [ DW_TAG_subprogram ]
!1136 = metadata !{i32 786453, i32 0, metadata !"", i32 0, i32 0, i64 0, i64 0, i64 0, i32 0, null, metadata !1137, i32 0, i32 0} ; [ DW_TAG_subroutine_type ]
!1137 = metadata !{metadata !1131, metadata !1055, metadata !262}
!1138 = metadata !{i32 786478, i32 0, metadata !1034, metadata !"set", metadata !"set", metadata !"_ZN11ap_int_baseILi7ELb1ELb1EE3setEPKca", metadata !165, i32 1651, metadata !1139, i1 false, i1 false, i32 0, i32 0, null, i32 256, i1 false, null, null, i32 0, metadata !177, i32 1651} ; [ DW_TAG_subprogram ]
!1139 = metadata !{i32 786453, i32 0, metadata !"", i32 0, i32 0, i64 0, i64 0, i64 0, i32 0, null, metadata !1140, i32 0, i32 0} ; [ DW_TAG_subroutine_type ]
!1140 = metadata !{metadata !1131, metadata !1055, metadata !262, metadata !208}
!1141 = metadata !{i32 786478, i32 0, metadata !1034, metadata !"operator=", metadata !"operator=", metadata !"_ZN11ap_int_baseILi7ELb1ELb1EEaSEa", metadata !165, i32 1665, metadata !1142, i1 false, i1 false, i32 0, i32 0, null, i32 256, i1 false, null, null, i32 0, metadata !177, i32 1665} ; [ DW_TAG_subprogram ]
!1142 = metadata !{i32 786453, i32 0, metadata !"", i32 0, i32 0, i64 0, i64 0, i64 0, i32 0, null, metadata !1143, i32 0, i32 0} ; [ DW_TAG_subroutine_type ]
!1143 = metadata !{metadata !1131, metadata !1055, metadata !208}
!1144 = metadata !{i32 786478, i32 0, metadata !1034, metadata !"operator=", metadata !"operator=", metadata !"_ZN11ap_int_baseILi7ELb1ELb1EEaSEh", metadata !165, i32 1666, metadata !1145, i1 false, i1 false, i32 0, i32 0, null, i32 256, i1 false, null, null, i32 0, metadata !177, i32 1666} ; [ DW_TAG_subprogram ]
!1145 = metadata !{i32 786453, i32 0, metadata !"", i32 0, i32 0, i64 0, i64 0, i64 0, i32 0, null, metadata !1146, i32 0, i32 0} ; [ DW_TAG_subroutine_type ]
!1146 = metadata !{metadata !1131, metadata !1055, metadata !212}
!1147 = metadata !{i32 786478, i32 0, metadata !1034, metadata !"operator=", metadata !"operator=", metadata !"_ZN11ap_int_baseILi7ELb1ELb1EEaSEs", metadata !165, i32 1667, metadata !1148, i1 false, i1 false, i32 0, i32 0, null, i32 256, i1 false, null, null, i32 0, metadata !177, i32 1667} ; [ DW_TAG_subprogram ]
!1148 = metadata !{i32 786453, i32 0, metadata !"", i32 0, i32 0, i64 0, i64 0, i64 0, i32 0, null, metadata !1149, i32 0, i32 0} ; [ DW_TAG_subroutine_type ]
!1149 = metadata !{metadata !1131, metadata !1055, metadata !216}
!1150 = metadata !{i32 786478, i32 0, metadata !1034, metadata !"operator=", metadata !"operator=", metadata !"_ZN11ap_int_baseILi7ELb1ELb1EEaSEt", metadata !165, i32 1668, metadata !1151, i1 false, i1 false, i32 0, i32 0, null, i32 256, i1 false, null, null, i32 0, metadata !177, i32 1668} ; [ DW_TAG_subprogram ]
!1151 = metadata !{i32 786453, i32 0, metadata !"", i32 0, i32 0, i64 0, i64 0, i64 0, i32 0, null, metadata !1152, i32 0, i32 0} ; [ DW_TAG_subroutine_type ]
!1152 = metadata !{metadata !1131, metadata !1055, metadata !220}
!1153 = metadata !{i32 786478, i32 0, metadata !1034, metadata !"operator=", metadata !"operator=", metadata !"_ZN11ap_int_baseILi7ELb1ELb1EEaSEi", metadata !165, i32 1669, metadata !1154, i1 false, i1 false, i32 0, i32 0, null, i32 256, i1 false, null, null, i32 0, metadata !177, i32 1669} ; [ DW_TAG_subprogram ]
!1154 = metadata !{i32 786453, i32 0, metadata !"", i32 0, i32 0, i64 0, i64 0, i64 0, i32 0, null, metadata !1155, i32 0, i32 0} ; [ DW_TAG_subroutine_type ]
!1155 = metadata !{metadata !1131, metadata !1055, metadata !181}
!1156 = metadata !{i32 786478, i32 0, metadata !1034, metadata !"operator=", metadata !"operator=", metadata !"_ZN11ap_int_baseILi7ELb1ELb1EEaSEj", metadata !165, i32 1670, metadata !1157, i1 false, i1 false, i32 0, i32 0, null, i32 256, i1 false, null, null, i32 0, metadata !177, i32 1670} ; [ DW_TAG_subprogram ]
!1157 = metadata !{i32 786453, i32 0, metadata !"", i32 0, i32 0, i64 0, i64 0, i64 0, i32 0, null, metadata !1158, i32 0, i32 0} ; [ DW_TAG_subroutine_type ]
!1158 = metadata !{metadata !1131, metadata !1055, metadata !227}
!1159 = metadata !{i32 786478, i32 0, metadata !1034, metadata !"operator=", metadata !"operator=", metadata !"_ZN11ap_int_baseILi7ELb1ELb1EEaSEx", metadata !165, i32 1671, metadata !1160, i1 false, i1 false, i32 0, i32 0, null, i32 256, i1 false, null, null, i32 0, metadata !177, i32 1671} ; [ DW_TAG_subprogram ]
!1160 = metadata !{i32 786453, i32 0, metadata !"", i32 0, i32 0, i64 0, i64 0, i64 0, i32 0, null, metadata !1161, i32 0, i32 0} ; [ DW_TAG_subroutine_type ]
!1161 = metadata !{metadata !1131, metadata !1055, metadata !239}
!1162 = metadata !{i32 786478, i32 0, metadata !1034, metadata !"operator=", metadata !"operator=", metadata !"_ZN11ap_int_baseILi7ELb1ELb1EEaSEy", metadata !165, i32 1672, metadata !1163, i1 false, i1 false, i32 0, i32 0, null, i32 256, i1 false, null, null, i32 0, metadata !177, i32 1672} ; [ DW_TAG_subprogram ]
!1163 = metadata !{i32 786453, i32 0, metadata !"", i32 0, i32 0, i64 0, i64 0, i64 0, i32 0, null, metadata !1164, i32 0, i32 0} ; [ DW_TAG_subroutine_type ]
!1164 = metadata !{metadata !1131, metadata !1055, metadata !244}
!1165 = metadata !{i32 786478, i32 0, metadata !1034, metadata !"operator signed char", metadata !"operator signed char", metadata !"_ZNK11ap_int_baseILi7ELb1ELb1EEcvaEv", metadata !165, i32 1710, metadata !1166, i1 false, i1 false, i32 0, i32 0, null, i32 256, i1 false, null, null, i32 0, metadata !177, i32 1710} ; [ DW_TAG_subprogram ]
!1166 = metadata !{i32 786453, i32 0, metadata !"", i32 0, i32 0, i64 0, i64 0, i64 0, i32 0, null, metadata !1167, i32 0, i32 0} ; [ DW_TAG_subroutine_type ]
!1167 = metadata !{metadata !1168, metadata !1169}
!1168 = metadata !{i32 786454, metadata !1034, metadata !"RetType", metadata !165, i32 1458, i64 0, i64 0, i64 0, i32 0, metadata !952} ; [ DW_TAG_typedef ]
!1169 = metadata !{i32 786447, i32 0, metadata !"", i32 0, i32 0, i64 64, i64 64, i64 0, i32 64, metadata !1060} ; [ DW_TAG_pointer_type ]
!1170 = metadata !{i32 786478, i32 0, metadata !1034, metadata !"to_bool", metadata !"to_bool", metadata !"_ZNK11ap_int_baseILi7ELb1ELb1EE7to_boolEv", metadata !165, i32 1716, metadata !1171, i1 false, i1 false, i32 0, i32 0, null, i32 256, i1 false, null, null, i32 0, metadata !177, i32 1716} ; [ DW_TAG_subprogram ]
!1171 = metadata !{i32 786453, i32 0, metadata !"", i32 0, i32 0, i64 0, i64 0, i64 0, i32 0, null, metadata !1172, i32 0, i32 0} ; [ DW_TAG_subroutine_type ]
!1172 = metadata !{metadata !183, metadata !1169}
!1173 = metadata !{i32 786478, i32 0, metadata !1034, metadata !"to_uchar", metadata !"to_uchar", metadata !"_ZNK11ap_int_baseILi7ELb1ELb1EE8to_ucharEv", metadata !165, i32 1717, metadata !1174, i1 false, i1 false, i32 0, i32 0, null, i32 256, i1 false, null, null, i32 0, metadata !177, i32 1717} ; [ DW_TAG_subprogram ]
!1174 = metadata !{i32 786453, i32 0, metadata !"", i32 0, i32 0, i64 0, i64 0, i64 0, i32 0, null, metadata !1175, i32 0, i32 0} ; [ DW_TAG_subroutine_type ]
!1175 = metadata !{metadata !212, metadata !1169}
!1176 = metadata !{i32 786478, i32 0, metadata !1034, metadata !"to_char", metadata !"to_char", metadata !"_ZNK11ap_int_baseILi7ELb1ELb1EE7to_charEv", metadata !165, i32 1718, metadata !1177, i1 false, i1 false, i32 0, i32 0, null, i32 256, i1 false, null, null, i32 0, metadata !177, i32 1718} ; [ DW_TAG_subprogram ]
!1177 = metadata !{i32 786453, i32 0, metadata !"", i32 0, i32 0, i64 0, i64 0, i64 0, i32 0, null, metadata !1178, i32 0, i32 0} ; [ DW_TAG_subroutine_type ]
!1178 = metadata !{metadata !208, metadata !1169}
!1179 = metadata !{i32 786478, i32 0, metadata !1034, metadata !"to_ushort", metadata !"to_ushort", metadata !"_ZNK11ap_int_baseILi7ELb1ELb1EE9to_ushortEv", metadata !165, i32 1719, metadata !1180, i1 false, i1 false, i32 0, i32 0, null, i32 256, i1 false, null, null, i32 0, metadata !177, i32 1719} ; [ DW_TAG_subprogram ]
!1180 = metadata !{i32 786453, i32 0, metadata !"", i32 0, i32 0, i64 0, i64 0, i64 0, i32 0, null, metadata !1181, i32 0, i32 0} ; [ DW_TAG_subroutine_type ]
!1181 = metadata !{metadata !220, metadata !1169}
!1182 = metadata !{i32 786478, i32 0, metadata !1034, metadata !"to_short", metadata !"to_short", metadata !"_ZNK11ap_int_baseILi7ELb1ELb1EE8to_shortEv", metadata !165, i32 1720, metadata !1183, i1 false, i1 false, i32 0, i32 0, null, i32 256, i1 false, null, null, i32 0, metadata !177, i32 1720} ; [ DW_TAG_subprogram ]
!1183 = metadata !{i32 786453, i32 0, metadata !"", i32 0, i32 0, i64 0, i64 0, i64 0, i32 0, null, metadata !1184, i32 0, i32 0} ; [ DW_TAG_subroutine_type ]
!1184 = metadata !{metadata !216, metadata !1169}
!1185 = metadata !{i32 786478, i32 0, metadata !1034, metadata !"to_int", metadata !"to_int", metadata !"_ZNK11ap_int_baseILi7ELb1ELb1EE6to_intEv", metadata !165, i32 1721, metadata !1186, i1 false, i1 false, i32 0, i32 0, null, i32 256, i1 false, null, null, i32 0, metadata !177, i32 1721} ; [ DW_TAG_subprogram ]
!1186 = metadata !{i32 786453, i32 0, metadata !"", i32 0, i32 0, i64 0, i64 0, i64 0, i32 0, null, metadata !1187, i32 0, i32 0} ; [ DW_TAG_subroutine_type ]
!1187 = metadata !{metadata !181, metadata !1169}
!1188 = metadata !{i32 786478, i32 0, metadata !1034, metadata !"to_uint", metadata !"to_uint", metadata !"_ZNK11ap_int_baseILi7ELb1ELb1EE7to_uintEv", metadata !165, i32 1722, metadata !1189, i1 false, i1 false, i32 0, i32 0, null, i32 256, i1 false, null, null, i32 0, metadata !177, i32 1722} ; [ DW_TAG_subprogram ]
!1189 = metadata !{i32 786453, i32 0, metadata !"", i32 0, i32 0, i64 0, i64 0, i64 0, i32 0, null, metadata !1190, i32 0, i32 0} ; [ DW_TAG_subroutine_type ]
!1190 = metadata !{metadata !227, metadata !1169}
!1191 = metadata !{i32 786478, i32 0, metadata !1034, metadata !"to_long", metadata !"to_long", metadata !"_ZNK11ap_int_baseILi7ELb1ELb1EE7to_longEv", metadata !165, i32 1723, metadata !1192, i1 false, i1 false, i32 0, i32 0, null, i32 256, i1 false, null, null, i32 0, metadata !177, i32 1723} ; [ DW_TAG_subprogram ]
!1192 = metadata !{i32 786453, i32 0, metadata !"", i32 0, i32 0, i64 0, i64 0, i64 0, i32 0, null, metadata !1193, i32 0, i32 0} ; [ DW_TAG_subroutine_type ]
!1193 = metadata !{metadata !231, metadata !1169}
!1194 = metadata !{i32 786478, i32 0, metadata !1034, metadata !"to_ulong", metadata !"to_ulong", metadata !"_ZNK11ap_int_baseILi7ELb1ELb1EE8to_ulongEv", metadata !165, i32 1724, metadata !1195, i1 false, i1 false, i32 0, i32 0, null, i32 256, i1 false, null, null, i32 0, metadata !177, i32 1724} ; [ DW_TAG_subprogram ]
!1195 = metadata !{i32 786453, i32 0, metadata !"", i32 0, i32 0, i64 0, i64 0, i64 0, i32 0, null, metadata !1196, i32 0, i32 0} ; [ DW_TAG_subroutine_type ]
!1196 = metadata !{metadata !235, metadata !1169}
!1197 = metadata !{i32 786478, i32 0, metadata !1034, metadata !"to_int64", metadata !"to_int64", metadata !"_ZNK11ap_int_baseILi7ELb1ELb1EE8to_int64Ev", metadata !165, i32 1725, metadata !1198, i1 false, i1 false, i32 0, i32 0, null, i32 256, i1 false, null, null, i32 0, metadata !177, i32 1725} ; [ DW_TAG_subprogram ]
!1198 = metadata !{i32 786453, i32 0, metadata !"", i32 0, i32 0, i64 0, i64 0, i64 0, i32 0, null, metadata !1199, i32 0, i32 0} ; [ DW_TAG_subroutine_type ]
!1199 = metadata !{metadata !239, metadata !1169}
!1200 = metadata !{i32 786478, i32 0, metadata !1034, metadata !"to_uint64", metadata !"to_uint64", metadata !"_ZNK11ap_int_baseILi7ELb1ELb1EE9to_uint64Ev", metadata !165, i32 1726, metadata !1201, i1 false, i1 false, i32 0, i32 0, null, i32 256, i1 false, null, null, i32 0, metadata !177, i32 1726} ; [ DW_TAG_subprogram ]
!1201 = metadata !{i32 786453, i32 0, metadata !"", i32 0, i32 0, i64 0, i64 0, i64 0, i32 0, null, metadata !1202, i32 0, i32 0} ; [ DW_TAG_subroutine_type ]
!1202 = metadata !{metadata !244, metadata !1169}
!1203 = metadata !{i32 786478, i32 0, metadata !1034, metadata !"to_double", metadata !"to_double", metadata !"_ZNK11ap_int_baseILi7ELb1ELb1EE9to_doubleEv", metadata !165, i32 1727, metadata !1204, i1 false, i1 false, i32 0, i32 0, null, i32 256, i1 false, null, null, i32 0, metadata !177, i32 1727} ; [ DW_TAG_subprogram ]
!1204 = metadata !{i32 786453, i32 0, metadata !"", i32 0, i32 0, i64 0, i64 0, i64 0, i32 0, null, metadata !1205, i32 0, i32 0} ; [ DW_TAG_subroutine_type ]
!1205 = metadata !{metadata !258, metadata !1169}
!1206 = metadata !{i32 786478, i32 0, metadata !1034, metadata !"length", metadata !"length", metadata !"_ZNK11ap_int_baseILi7ELb1ELb1EE6lengthEv", metadata !165, i32 1741, metadata !1186, i1 false, i1 false, i32 0, i32 0, null, i32 256, i1 false, null, null, i32 0, metadata !177, i32 1741} ; [ DW_TAG_subprogram ]
!1207 = metadata !{i32 786478, i32 0, metadata !1034, metadata !"length", metadata !"length", metadata !"_ZNVK11ap_int_baseILi7ELb1ELb1EE6lengthEv", metadata !165, i32 1742, metadata !1208, i1 false, i1 false, i32 0, i32 0, null, i32 256, i1 false, null, null, i32 0, metadata !177, i32 1742} ; [ DW_TAG_subprogram ]
!1208 = metadata !{i32 786453, i32 0, metadata !"", i32 0, i32 0, i64 0, i64 0, i64 0, i32 0, null, metadata !1209, i32 0, i32 0} ; [ DW_TAG_subroutine_type ]
!1209 = metadata !{metadata !181, metadata !1210}
!1210 = metadata !{i32 786447, i32 0, metadata !"", i32 0, i32 0, i64 64, i64 64, i64 0, i32 64, metadata !1067} ; [ DW_TAG_pointer_type ]
!1211 = metadata !{i32 786478, i32 0, metadata !1034, metadata !"reverse", metadata !"reverse", metadata !"_ZN11ap_int_baseILi7ELb1ELb1EE7reverseEv", metadata !165, i32 1747, metadata !1212, i1 false, i1 false, i32 0, i32 0, null, i32 256, i1 false, null, null, i32 0, metadata !177, i32 1747} ; [ DW_TAG_subprogram ]
!1212 = metadata !{i32 786453, i32 0, metadata !"", i32 0, i32 0, i64 0, i64 0, i64 0, i32 0, null, metadata !1213, i32 0, i32 0} ; [ DW_TAG_subroutine_type ]
!1213 = metadata !{metadata !1131, metadata !1055}
!1214 = metadata !{i32 786478, i32 0, metadata !1034, metadata !"iszero", metadata !"iszero", metadata !"_ZNK11ap_int_baseILi7ELb1ELb1EE6iszeroEv", metadata !165, i32 1753, metadata !1171, i1 false, i1 false, i32 0, i32 0, null, i32 256, i1 false, null, null, i32 0, metadata !177, i32 1753} ; [ DW_TAG_subprogram ]
!1215 = metadata !{i32 786478, i32 0, metadata !1034, metadata !"is_zero", metadata !"is_zero", metadata !"_ZNK11ap_int_baseILi7ELb1ELb1EE7is_zeroEv", metadata !165, i32 1758, metadata !1171, i1 false, i1 false, i32 0, i32 0, null, i32 256, i1 false, null, null, i32 0, metadata !177, i32 1758} ; [ DW_TAG_subprogram ]
!1216 = metadata !{i32 786478, i32 0, metadata !1034, metadata !"sign", metadata !"sign", metadata !"_ZNK11ap_int_baseILi7ELb1ELb1EE4signEv", metadata !165, i32 1763, metadata !1171, i1 false, i1 false, i32 0, i32 0, null, i32 256, i1 false, null, null, i32 0, metadata !177, i32 1763} ; [ DW_TAG_subprogram ]
!1217 = metadata !{i32 786478, i32 0, metadata !1034, metadata !"clear", metadata !"clear", metadata !"_ZN11ap_int_baseILi7ELb1ELb1EE5clearEi", metadata !165, i32 1771, metadata !1085, i1 false, i1 false, i32 0, i32 0, null, i32 256, i1 false, null, null, i32 0, metadata !177, i32 1771} ; [ DW_TAG_subprogram ]
!1218 = metadata !{i32 786478, i32 0, metadata !1034, metadata !"invert", metadata !"invert", metadata !"_ZN11ap_int_baseILi7ELb1ELb1EE6invertEi", metadata !165, i32 1777, metadata !1085, i1 false, i1 false, i32 0, i32 0, null, i32 256, i1 false, null, null, i32 0, metadata !177, i32 1777} ; [ DW_TAG_subprogram ]
!1219 = metadata !{i32 786478, i32 0, metadata !1034, metadata !"test", metadata !"test", metadata !"_ZNK11ap_int_baseILi7ELb1ELb1EE4testEi", metadata !165, i32 1785, metadata !1220, i1 false, i1 false, i32 0, i32 0, null, i32 256, i1 false, null, null, i32 0, metadata !177, i32 1785} ; [ DW_TAG_subprogram ]
!1220 = metadata !{i32 786453, i32 0, metadata !"", i32 0, i32 0, i64 0, i64 0, i64 0, i32 0, null, metadata !1221, i32 0, i32 0} ; [ DW_TAG_subroutine_type ]
!1221 = metadata !{metadata !183, metadata !1169, metadata !181}
!1222 = metadata !{i32 786478, i32 0, metadata !1034, metadata !"set", metadata !"set", metadata !"_ZN11ap_int_baseILi7ELb1ELb1EE3setEi", metadata !165, i32 1791, metadata !1085, i1 false, i1 false, i32 0, i32 0, null, i32 256, i1 false, null, null, i32 0, metadata !177, i32 1791} ; [ DW_TAG_subprogram ]
!1223 = metadata !{i32 786478, i32 0, metadata !1034, metadata !"set", metadata !"set", metadata !"_ZN11ap_int_baseILi7ELb1ELb1EE3setEib", metadata !165, i32 1797, metadata !1224, i1 false, i1 false, i32 0, i32 0, null, i32 256, i1 false, null, null, i32 0, metadata !177, i32 1797} ; [ DW_TAG_subprogram ]
!1224 = metadata !{i32 786453, i32 0, metadata !"", i32 0, i32 0, i64 0, i64 0, i64 0, i32 0, null, metadata !1225, i32 0, i32 0} ; [ DW_TAG_subroutine_type ]
!1225 = metadata !{null, metadata !1055, metadata !181, metadata !183}
!1226 = metadata !{i32 786478, i32 0, metadata !1034, metadata !"lrotate", metadata !"lrotate", metadata !"_ZN11ap_int_baseILi7ELb1ELb1EE7lrotateEi", metadata !165, i32 1804, metadata !1085, i1 false, i1 false, i32 0, i32 0, null, i32 256, i1 false, null, null, i32 0, metadata !177, i32 1804} ; [ DW_TAG_subprogram ]
!1227 = metadata !{i32 786478, i32 0, metadata !1034, metadata !"rrotate", metadata !"rrotate", metadata !"_ZN11ap_int_baseILi7ELb1ELb1EE7rrotateEi", metadata !165, i32 1813, metadata !1085, i1 false, i1 false, i32 0, i32 0, null, i32 256, i1 false, null, null, i32 0, metadata !177, i32 1813} ; [ DW_TAG_subprogram ]
!1228 = metadata !{i32 786478, i32 0, metadata !1034, metadata !"set_bit", metadata !"set_bit", metadata !"_ZN11ap_int_baseILi7ELb1ELb1EE7set_bitEib", metadata !165, i32 1821, metadata !1224, i1 false, i1 false, i32 0, i32 0, null, i32 256, i1 false, null, null, i32 0, metadata !177, i32 1821} ; [ DW_TAG_subprogram ]
!1229 = metadata !{i32 786478, i32 0, metadata !1034, metadata !"get_bit", metadata !"get_bit", metadata !"_ZNK11ap_int_baseILi7ELb1ELb1EE7get_bitEi", metadata !165, i32 1826, metadata !1220, i1 false, i1 false, i32 0, i32 0, null, i32 256, i1 false, null, null, i32 0, metadata !177, i32 1826} ; [ DW_TAG_subprogram ]
!1230 = metadata !{i32 786478, i32 0, metadata !1034, metadata !"b_not", metadata !"b_not", metadata !"_ZN11ap_int_baseILi7ELb1ELb1EE5b_notEv", metadata !165, i32 1831, metadata !1053, i1 false, i1 false, i32 0, i32 0, null, i32 256, i1 false, null, null, i32 0, metadata !177, i32 1831} ; [ DW_TAG_subprogram ]
!1231 = metadata !{i32 786478, i32 0, metadata !1034, metadata !"countLeadingZeros", metadata !"countLeadingZeros", metadata !"_ZN11ap_int_baseILi7ELb1ELb1EE17countLeadingZerosEv", metadata !165, i32 1838, metadata !1232, i1 false, i1 false, i32 0, i32 0, null, i32 256, i1 false, null, null, i32 0, metadata !177, i32 1838} ; [ DW_TAG_subprogram ]
!1232 = metadata !{i32 786453, i32 0, metadata !"", i32 0, i32 0, i64 0, i64 0, i64 0, i32 0, null, metadata !1233, i32 0, i32 0} ; [ DW_TAG_subroutine_type ]
!1233 = metadata !{metadata !181, metadata !1055}
!1234 = metadata !{i32 786478, i32 0, metadata !1034, metadata !"operator++", metadata !"operator++", metadata !"_ZN11ap_int_baseILi7ELb1ELb1EEppEv", metadata !165, i32 1895, metadata !1212, i1 false, i1 false, i32 0, i32 0, null, i32 256, i1 false, null, null, i32 0, metadata !177, i32 1895} ; [ DW_TAG_subprogram ]
!1235 = metadata !{i32 786478, i32 0, metadata !1034, metadata !"operator--", metadata !"operator--", metadata !"_ZN11ap_int_baseILi7ELb1ELb1EEmmEv", metadata !165, i32 1899, metadata !1212, i1 false, i1 false, i32 0, i32 0, null, i32 256, i1 false, null, null, i32 0, metadata !177, i32 1899} ; [ DW_TAG_subprogram ]
!1236 = metadata !{i32 786478, i32 0, metadata !1034, metadata !"operator++", metadata !"operator++", metadata !"_ZN11ap_int_baseILi7ELb1ELb1EEppEi", metadata !165, i32 1907, metadata !1237, i1 false, i1 false, i32 0, i32 0, null, i32 256, i1 false, null, null, i32 0, metadata !177, i32 1907} ; [ DW_TAG_subprogram ]
!1237 = metadata !{i32 786453, i32 0, metadata !"", i32 0, i32 0, i64 0, i64 0, i64 0, i32 0, null, metadata !1238, i32 0, i32 0} ; [ DW_TAG_subroutine_type ]
!1238 = metadata !{metadata !1060, metadata !1055, metadata !181}
!1239 = metadata !{i32 786478, i32 0, metadata !1034, metadata !"operator--", metadata !"operator--", metadata !"_ZN11ap_int_baseILi7ELb1ELb1EEmmEi", metadata !165, i32 1912, metadata !1237, i1 false, i1 false, i32 0, i32 0, null, i32 256, i1 false, null, null, i32 0, metadata !177, i32 1912} ; [ DW_TAG_subprogram ]
!1240 = metadata !{i32 786478, i32 0, metadata !1034, metadata !"operator+", metadata !"operator+", metadata !"_ZNK11ap_int_baseILi7ELb1ELb1EEpsEv", metadata !165, i32 1921, metadata !1241, i1 false, i1 false, i32 0, i32 0, null, i32 256, i1 false, null, null, i32 0, metadata !177, i32 1921} ; [ DW_TAG_subprogram ]
!1241 = metadata !{i32 786453, i32 0, metadata !"", i32 0, i32 0, i64 0, i64 0, i64 0, i32 0, null, metadata !1242, i32 0, i32 0} ; [ DW_TAG_subroutine_type ]
!1242 = metadata !{metadata !1034, metadata !1169}
!1243 = metadata !{i32 786478, i32 0, metadata !1034, metadata !"operator!", metadata !"operator!", metadata !"_ZNK11ap_int_baseILi7ELb1ELb1EEntEv", metadata !165, i32 1927, metadata !1171, i1 false, i1 false, i32 0, i32 0, null, i32 256, i1 false, null, null, i32 0, metadata !177, i32 1927} ; [ DW_TAG_subprogram ]
!1244 = metadata !{i32 786478, i32 0, metadata !1034, metadata !"operator-", metadata !"operator-", metadata !"_ZNK11ap_int_baseILi7ELb1ELb1EEngEv", metadata !165, i32 1932, metadata !1245, i1 false, i1 false, i32 0, i32 0, null, i32 256, i1 false, null, null, i32 0, metadata !177, i32 1932} ; [ DW_TAG_subprogram ]
!1245 = metadata !{i32 786453, i32 0, metadata !"", i32 0, i32 0, i64 0, i64 0, i64 0, i32 0, null, metadata !1246, i32 0, i32 0} ; [ DW_TAG_subroutine_type ]
!1246 = metadata !{metadata !1247, metadata !1169}
!1247 = metadata !{i32 786434, null, metadata !"ap_int_base<8, true, true>", metadata !165, i32 1453, i64 8, i64 8, i32 0, i32 0, null, metadata !1248, i32 0, null, metadata !1766} ; [ DW_TAG_class_type ]
!1248 = metadata !{metadata !1249, metadata !1260, metadata !1264, metadata !1267, metadata !1270, metadata !1273, metadata !1276, metadata !1279, metadata !1282, metadata !1285, metadata !1288, metadata !1291, metadata !1294, metadata !1297, metadata !1300, metadata !1303, metadata !1306, metadata !1309, metadata !1312, metadata !1317, metadata !1322, metadata !1327, metadata !1328, metadata !1332, metadata !1335, metadata !1338, metadata !1341, metadata !1344, metadata !1347, metadata !1350, metadata !1353, metadata !1356, metadata !1359, metadata !1362, metadata !1365, metadata !1370, metadata !1373, metadata !1376, metadata !1379, metadata !1382, metadata !1385, metadata !1388, metadata !1391, metadata !1394, metadata !1397, metadata !1400, metadata !1403, metadata !1406, metadata !1407, metadata !1411, metadata !1414, metadata !1415, metadata !1416, metadata !1417, metadata !1418, metadata !1419, metadata !1422, metadata !1423, metadata !1426, metadata !1427, metadata !1428, metadata !1429, metadata !1430, metadata !1431, metadata !1434, metadata !1435, metadata !1436, metadata !1439, metadata !1440, metadata !1443, metadata !1444, metadata !1727, metadata !1731, metadata !1732, metadata !1735, metadata !1736, metadata !1740, metadata !1741, metadata !1742, metadata !1743, metadata !1746, metadata !1747, metadata !1748, metadata !1749, metadata !1750, metadata !1751, metadata !1752, metadata !1753, metadata !1754, metadata !1755, metadata !1756, metadata !1757, metadata !1760, metadata !1763}
!1249 = metadata !{i32 786460, metadata !1247, null, metadata !165, i32 0, i64 0, i64 0, i64 0, i32 0, metadata !1250} ; [ DW_TAG_inheritance ]
!1250 = metadata !{i32 786434, null, metadata !"ssdm_int<8 + 1024 * 0, true>", metadata !169, i32 10, i64 8, i64 8, i32 0, i32 0, null, metadata !1251, i32 0, null, metadata !1258} ; [ DW_TAG_class_type ]
!1251 = metadata !{metadata !1252, metadata !1254}
!1252 = metadata !{i32 786445, metadata !1250, metadata !"V", metadata !169, i32 10, i64 8, i64 8, i64 0, i32 0, metadata !1253} ; [ DW_TAG_member ]
!1253 = metadata !{i32 786468, null, metadata !"int8", null, i32 0, i64 8, i64 8, i64 0, i32 0, i32 5} ; [ DW_TAG_base_type ]
!1254 = metadata !{i32 786478, i32 0, metadata !1250, metadata !"ssdm_int", metadata !"ssdm_int", metadata !"", metadata !169, i32 10, metadata !1255, i1 false, i1 false, i32 0, i32 0, null, i32 256, i1 false, null, null, i32 0, metadata !177, i32 10} ; [ DW_TAG_subprogram ]
!1255 = metadata !{i32 786453, i32 0, metadata !"", i32 0, i32 0, i64 0, i64 0, i64 0, i32 0, null, metadata !1256, i32 0, i32 0} ; [ DW_TAG_subroutine_type ]
!1256 = metadata !{null, metadata !1257}
!1257 = metadata !{i32 786447, i32 0, metadata !"", i32 0, i32 0, i64 64, i64 64, i64 0, i32 64, metadata !1250} ; [ DW_TAG_pointer_type ]
!1258 = metadata !{metadata !1259, metadata !182}
!1259 = metadata !{i32 786480, null, metadata !"_AP_N", metadata !181, i64 8, null, i32 0, i32 0} ; [ DW_TAG_template_value_parameter ]
!1260 = metadata !{i32 786478, i32 0, metadata !1247, metadata !"ap_int_base", metadata !"ap_int_base", metadata !"", metadata !165, i32 1494, metadata !1261, i1 false, i1 false, i32 0, i32 0, null, i32 256, i1 false, null, null, i32 0, metadata !177, i32 1494} ; [ DW_TAG_subprogram ]
!1261 = metadata !{i32 786453, i32 0, metadata !"", i32 0, i32 0, i64 0, i64 0, i64 0, i32 0, null, metadata !1262, i32 0, i32 0} ; [ DW_TAG_subroutine_type ]
!1262 = metadata !{null, metadata !1263}
!1263 = metadata !{i32 786447, i32 0, metadata !"", i32 0, i32 0, i64 64, i64 64, i64 0, i32 64, metadata !1247} ; [ DW_TAG_pointer_type ]
!1264 = metadata !{i32 786478, i32 0, metadata !1247, metadata !"ap_int_base", metadata !"ap_int_base", metadata !"", metadata !165, i32 1516, metadata !1265, i1 false, i1 false, i32 0, i32 0, null, i32 384, i1 false, null, null, i32 0, metadata !177, i32 1516} ; [ DW_TAG_subprogram ]
!1265 = metadata !{i32 786453, i32 0, metadata !"", i32 0, i32 0, i64 0, i64 0, i64 0, i32 0, null, metadata !1266, i32 0, i32 0} ; [ DW_TAG_subroutine_type ]
!1266 = metadata !{null, metadata !1263, metadata !183}
!1267 = metadata !{i32 786478, i32 0, metadata !1247, metadata !"ap_int_base", metadata !"ap_int_base", metadata !"", metadata !165, i32 1517, metadata !1268, i1 false, i1 false, i32 0, i32 0, null, i32 384, i1 false, null, null, i32 0, metadata !177, i32 1517} ; [ DW_TAG_subprogram ]
!1268 = metadata !{i32 786453, i32 0, metadata !"", i32 0, i32 0, i64 0, i64 0, i64 0, i32 0, null, metadata !1269, i32 0, i32 0} ; [ DW_TAG_subroutine_type ]
!1269 = metadata !{null, metadata !1263, metadata !208}
!1270 = metadata !{i32 786478, i32 0, metadata !1247, metadata !"ap_int_base", metadata !"ap_int_base", metadata !"", metadata !165, i32 1518, metadata !1271, i1 false, i1 false, i32 0, i32 0, null, i32 384, i1 false, null, null, i32 0, metadata !177, i32 1518} ; [ DW_TAG_subprogram ]
!1271 = metadata !{i32 786453, i32 0, metadata !"", i32 0, i32 0, i64 0, i64 0, i64 0, i32 0, null, metadata !1272, i32 0, i32 0} ; [ DW_TAG_subroutine_type ]
!1272 = metadata !{null, metadata !1263, metadata !212}
!1273 = metadata !{i32 786478, i32 0, metadata !1247, metadata !"ap_int_base", metadata !"ap_int_base", metadata !"", metadata !165, i32 1519, metadata !1274, i1 false, i1 false, i32 0, i32 0, null, i32 384, i1 false, null, null, i32 0, metadata !177, i32 1519} ; [ DW_TAG_subprogram ]
!1274 = metadata !{i32 786453, i32 0, metadata !"", i32 0, i32 0, i64 0, i64 0, i64 0, i32 0, null, metadata !1275, i32 0, i32 0} ; [ DW_TAG_subroutine_type ]
!1275 = metadata !{null, metadata !1263, metadata !216}
!1276 = metadata !{i32 786478, i32 0, metadata !1247, metadata !"ap_int_base", metadata !"ap_int_base", metadata !"", metadata !165, i32 1520, metadata !1277, i1 false, i1 false, i32 0, i32 0, null, i32 384, i1 false, null, null, i32 0, metadata !177, i32 1520} ; [ DW_TAG_subprogram ]
!1277 = metadata !{i32 786453, i32 0, metadata !"", i32 0, i32 0, i64 0, i64 0, i64 0, i32 0, null, metadata !1278, i32 0, i32 0} ; [ DW_TAG_subroutine_type ]
!1278 = metadata !{null, metadata !1263, metadata !220}
!1279 = metadata !{i32 786478, i32 0, metadata !1247, metadata !"ap_int_base", metadata !"ap_int_base", metadata !"", metadata !165, i32 1521, metadata !1280, i1 false, i1 false, i32 0, i32 0, null, i32 384, i1 false, null, null, i32 0, metadata !177, i32 1521} ; [ DW_TAG_subprogram ]
!1280 = metadata !{i32 786453, i32 0, metadata !"", i32 0, i32 0, i64 0, i64 0, i64 0, i32 0, null, metadata !1281, i32 0, i32 0} ; [ DW_TAG_subroutine_type ]
!1281 = metadata !{null, metadata !1263, metadata !181}
!1282 = metadata !{i32 786478, i32 0, metadata !1247, metadata !"ap_int_base", metadata !"ap_int_base", metadata !"", metadata !165, i32 1522, metadata !1283, i1 false, i1 false, i32 0, i32 0, null, i32 384, i1 false, null, null, i32 0, metadata !177, i32 1522} ; [ DW_TAG_subprogram ]
!1283 = metadata !{i32 786453, i32 0, metadata !"", i32 0, i32 0, i64 0, i64 0, i64 0, i32 0, null, metadata !1284, i32 0, i32 0} ; [ DW_TAG_subroutine_type ]
!1284 = metadata !{null, metadata !1263, metadata !227}
!1285 = metadata !{i32 786478, i32 0, metadata !1247, metadata !"ap_int_base", metadata !"ap_int_base", metadata !"", metadata !165, i32 1523, metadata !1286, i1 false, i1 false, i32 0, i32 0, null, i32 384, i1 false, null, null, i32 0, metadata !177, i32 1523} ; [ DW_TAG_subprogram ]
!1286 = metadata !{i32 786453, i32 0, metadata !"", i32 0, i32 0, i64 0, i64 0, i64 0, i32 0, null, metadata !1287, i32 0, i32 0} ; [ DW_TAG_subroutine_type ]
!1287 = metadata !{null, metadata !1263, metadata !231}
!1288 = metadata !{i32 786478, i32 0, metadata !1247, metadata !"ap_int_base", metadata !"ap_int_base", metadata !"", metadata !165, i32 1524, metadata !1289, i1 false, i1 false, i32 0, i32 0, null, i32 384, i1 false, null, null, i32 0, metadata !177, i32 1524} ; [ DW_TAG_subprogram ]
!1289 = metadata !{i32 786453, i32 0, metadata !"", i32 0, i32 0, i64 0, i64 0, i64 0, i32 0, null, metadata !1290, i32 0, i32 0} ; [ DW_TAG_subroutine_type ]
!1290 = metadata !{null, metadata !1263, metadata !235}
!1291 = metadata !{i32 786478, i32 0, metadata !1247, metadata !"ap_int_base", metadata !"ap_int_base", metadata !"", metadata !165, i32 1525, metadata !1292, i1 false, i1 false, i32 0, i32 0, null, i32 384, i1 false, null, null, i32 0, metadata !177, i32 1525} ; [ DW_TAG_subprogram ]
!1292 = metadata !{i32 786453, i32 0, metadata !"", i32 0, i32 0, i64 0, i64 0, i64 0, i32 0, null, metadata !1293, i32 0, i32 0} ; [ DW_TAG_subroutine_type ]
!1293 = metadata !{null, metadata !1263, metadata !239}
!1294 = metadata !{i32 786478, i32 0, metadata !1247, metadata !"ap_int_base", metadata !"ap_int_base", metadata !"", metadata !165, i32 1526, metadata !1295, i1 false, i1 false, i32 0, i32 0, null, i32 384, i1 false, null, null, i32 0, metadata !177, i32 1526} ; [ DW_TAG_subprogram ]
!1295 = metadata !{i32 786453, i32 0, metadata !"", i32 0, i32 0, i64 0, i64 0, i64 0, i32 0, null, metadata !1296, i32 0, i32 0} ; [ DW_TAG_subroutine_type ]
!1296 = metadata !{null, metadata !1263, metadata !244}
!1297 = metadata !{i32 786478, i32 0, metadata !1247, metadata !"ap_int_base", metadata !"ap_int_base", metadata !"", metadata !165, i32 1527, metadata !1298, i1 false, i1 false, i32 0, i32 0, null, i32 384, i1 false, null, null, i32 0, metadata !177, i32 1527} ; [ DW_TAG_subprogram ]
!1298 = metadata !{i32 786453, i32 0, metadata !"", i32 0, i32 0, i64 0, i64 0, i64 0, i32 0, null, metadata !1299, i32 0, i32 0} ; [ DW_TAG_subroutine_type ]
!1299 = metadata !{null, metadata !1263, metadata !249}
!1300 = metadata !{i32 786478, i32 0, metadata !1247, metadata !"ap_int_base", metadata !"ap_int_base", metadata !"", metadata !165, i32 1528, metadata !1301, i1 false, i1 false, i32 0, i32 0, null, i32 384, i1 false, null, null, i32 0, metadata !177, i32 1528} ; [ DW_TAG_subprogram ]
!1301 = metadata !{i32 786453, i32 0, metadata !"", i32 0, i32 0, i64 0, i64 0, i64 0, i32 0, null, metadata !1302, i32 0, i32 0} ; [ DW_TAG_subroutine_type ]
!1302 = metadata !{null, metadata !1263, metadata !254}
!1303 = metadata !{i32 786478, i32 0, metadata !1247, metadata !"ap_int_base", metadata !"ap_int_base", metadata !"", metadata !165, i32 1529, metadata !1304, i1 false, i1 false, i32 0, i32 0, null, i32 384, i1 false, null, null, i32 0, metadata !177, i32 1529} ; [ DW_TAG_subprogram ]
!1304 = metadata !{i32 786453, i32 0, metadata !"", i32 0, i32 0, i64 0, i64 0, i64 0, i32 0, null, metadata !1305, i32 0, i32 0} ; [ DW_TAG_subroutine_type ]
!1305 = metadata !{null, metadata !1263, metadata !258}
!1306 = metadata !{i32 786478, i32 0, metadata !1247, metadata !"ap_int_base", metadata !"ap_int_base", metadata !"", metadata !165, i32 1556, metadata !1307, i1 false, i1 false, i32 0, i32 0, null, i32 256, i1 false, null, null, i32 0, metadata !177, i32 1556} ; [ DW_TAG_subprogram ]
!1307 = metadata !{i32 786453, i32 0, metadata !"", i32 0, i32 0, i64 0, i64 0, i64 0, i32 0, null, metadata !1308, i32 0, i32 0} ; [ DW_TAG_subroutine_type ]
!1308 = metadata !{null, metadata !1263, metadata !262}
!1309 = metadata !{i32 786478, i32 0, metadata !1247, metadata !"ap_int_base", metadata !"ap_int_base", metadata !"", metadata !165, i32 1563, metadata !1310, i1 false, i1 false, i32 0, i32 0, null, i32 256, i1 false, null, null, i32 0, metadata !177, i32 1563} ; [ DW_TAG_subprogram ]
!1310 = metadata !{i32 786453, i32 0, metadata !"", i32 0, i32 0, i64 0, i64 0, i64 0, i32 0, null, metadata !1311, i32 0, i32 0} ; [ DW_TAG_subroutine_type ]
!1311 = metadata !{null, metadata !1263, metadata !262, metadata !208}
!1312 = metadata !{i32 786478, i32 0, metadata !1247, metadata !"read", metadata !"read", metadata !"_ZNV11ap_int_baseILi8ELb1ELb1EE4readEv", metadata !165, i32 1584, metadata !1313, i1 false, i1 false, i32 0, i32 0, null, i32 256, i1 false, null, null, i32 0, metadata !177, i32 1584} ; [ DW_TAG_subprogram ]
!1313 = metadata !{i32 786453, i32 0, metadata !"", i32 0, i32 0, i64 0, i64 0, i64 0, i32 0, null, metadata !1314, i32 0, i32 0} ; [ DW_TAG_subroutine_type ]
!1314 = metadata !{metadata !1247, metadata !1315}
!1315 = metadata !{i32 786447, i32 0, metadata !"", i32 0, i32 0, i64 64, i64 64, i64 0, i32 64, metadata !1316} ; [ DW_TAG_pointer_type ]
!1316 = metadata !{i32 786485, null, metadata !"", null, i32 0, i64 0, i64 0, i64 0, i32 0, metadata !1247} ; [ DW_TAG_volatile_type ]
!1317 = metadata !{i32 786478, i32 0, metadata !1247, metadata !"write", metadata !"write", metadata !"_ZNV11ap_int_baseILi8ELb1ELb1EE5writeERKS0_", metadata !165, i32 1590, metadata !1318, i1 false, i1 false, i32 0, i32 0, null, i32 256, i1 false, null, null, i32 0, metadata !177, i32 1590} ; [ DW_TAG_subprogram ]
!1318 = metadata !{i32 786453, i32 0, metadata !"", i32 0, i32 0, i64 0, i64 0, i64 0, i32 0, null, metadata !1319, i32 0, i32 0} ; [ DW_TAG_subroutine_type ]
!1319 = metadata !{null, metadata !1315, metadata !1320}
!1320 = metadata !{i32 786448, null, null, null, i32 0, i64 0, i64 0, i64 0, i32 0, metadata !1321} ; [ DW_TAG_reference_type ]
!1321 = metadata !{i32 786470, null, metadata !"", null, i32 0, i64 0, i64 0, i64 0, i32 0, metadata !1247} ; [ DW_TAG_const_type ]
!1322 = metadata !{i32 786478, i32 0, metadata !1247, metadata !"operator=", metadata !"operator=", metadata !"_ZNV11ap_int_baseILi8ELb1ELb1EEaSERVKS0_", metadata !165, i32 1602, metadata !1323, i1 false, i1 false, i32 0, i32 0, null, i32 256, i1 false, null, null, i32 0, metadata !177, i32 1602} ; [ DW_TAG_subprogram ]
!1323 = metadata !{i32 786453, i32 0, metadata !"", i32 0, i32 0, i64 0, i64 0, i64 0, i32 0, null, metadata !1324, i32 0, i32 0} ; [ DW_TAG_subroutine_type ]
!1324 = metadata !{null, metadata !1315, metadata !1325}
!1325 = metadata !{i32 786448, null, null, null, i32 0, i64 0, i64 0, i64 0, i32 0, metadata !1326} ; [ DW_TAG_reference_type ]
!1326 = metadata !{i32 786470, null, metadata !"", null, i32 0, i64 0, i64 0, i64 0, i32 0, metadata !1316} ; [ DW_TAG_const_type ]
!1327 = metadata !{i32 786478, i32 0, metadata !1247, metadata !"operator=", metadata !"operator=", metadata !"_ZNV11ap_int_baseILi8ELb1ELb1EEaSERKS0_", metadata !165, i32 1611, metadata !1318, i1 false, i1 false, i32 0, i32 0, null, i32 256, i1 false, null, null, i32 0, metadata !177, i32 1611} ; [ DW_TAG_subprogram ]
!1328 = metadata !{i32 786478, i32 0, metadata !1247, metadata !"operator=", metadata !"operator=", metadata !"_ZN11ap_int_baseILi8ELb1ELb1EEaSERVKS0_", metadata !165, i32 1634, metadata !1329, i1 false, i1 false, i32 0, i32 0, null, i32 256, i1 false, null, null, i32 0, metadata !177, i32 1634} ; [ DW_TAG_subprogram ]
!1329 = metadata !{i32 786453, i32 0, metadata !"", i32 0, i32 0, i64 0, i64 0, i64 0, i32 0, null, metadata !1330, i32 0, i32 0} ; [ DW_TAG_subroutine_type ]
!1330 = metadata !{metadata !1331, metadata !1263, metadata !1325}
!1331 = metadata !{i32 786448, null, null, null, i32 0, i64 0, i64 0, i64 0, i32 0, metadata !1247} ; [ DW_TAG_reference_type ]
!1332 = metadata !{i32 786478, i32 0, metadata !1247, metadata !"operator=", metadata !"operator=", metadata !"_ZN11ap_int_baseILi8ELb1ELb1EEaSERKS0_", metadata !165, i32 1639, metadata !1333, i1 false, i1 false, i32 0, i32 0, null, i32 256, i1 false, null, null, i32 0, metadata !177, i32 1639} ; [ DW_TAG_subprogram ]
!1333 = metadata !{i32 786453, i32 0, metadata !"", i32 0, i32 0, i64 0, i64 0, i64 0, i32 0, null, metadata !1334, i32 0, i32 0} ; [ DW_TAG_subroutine_type ]
!1334 = metadata !{metadata !1331, metadata !1263, metadata !1320}
!1335 = metadata !{i32 786478, i32 0, metadata !1247, metadata !"operator=", metadata !"operator=", metadata !"_ZN11ap_int_baseILi8ELb1ELb1EEaSEPKc", metadata !165, i32 1643, metadata !1336, i1 false, i1 false, i32 0, i32 0, null, i32 256, i1 false, null, null, i32 0, metadata !177, i32 1643} ; [ DW_TAG_subprogram ]
!1336 = metadata !{i32 786453, i32 0, metadata !"", i32 0, i32 0, i64 0, i64 0, i64 0, i32 0, null, metadata !1337, i32 0, i32 0} ; [ DW_TAG_subroutine_type ]
!1337 = metadata !{metadata !1331, metadata !1263, metadata !262}
!1338 = metadata !{i32 786478, i32 0, metadata !1247, metadata !"set", metadata !"set", metadata !"_ZN11ap_int_baseILi8ELb1ELb1EE3setEPKca", metadata !165, i32 1651, metadata !1339, i1 false, i1 false, i32 0, i32 0, null, i32 256, i1 false, null, null, i32 0, metadata !177, i32 1651} ; [ DW_TAG_subprogram ]
!1339 = metadata !{i32 786453, i32 0, metadata !"", i32 0, i32 0, i64 0, i64 0, i64 0, i32 0, null, metadata !1340, i32 0, i32 0} ; [ DW_TAG_subroutine_type ]
!1340 = metadata !{metadata !1331, metadata !1263, metadata !262, metadata !208}
!1341 = metadata !{i32 786478, i32 0, metadata !1247, metadata !"operator=", metadata !"operator=", metadata !"_ZN11ap_int_baseILi8ELb1ELb1EEaSEa", metadata !165, i32 1665, metadata !1342, i1 false, i1 false, i32 0, i32 0, null, i32 256, i1 false, null, null, i32 0, metadata !177, i32 1665} ; [ DW_TAG_subprogram ]
!1342 = metadata !{i32 786453, i32 0, metadata !"", i32 0, i32 0, i64 0, i64 0, i64 0, i32 0, null, metadata !1343, i32 0, i32 0} ; [ DW_TAG_subroutine_type ]
!1343 = metadata !{metadata !1331, metadata !1263, metadata !208}
!1344 = metadata !{i32 786478, i32 0, metadata !1247, metadata !"operator=", metadata !"operator=", metadata !"_ZN11ap_int_baseILi8ELb1ELb1EEaSEh", metadata !165, i32 1666, metadata !1345, i1 false, i1 false, i32 0, i32 0, null, i32 256, i1 false, null, null, i32 0, metadata !177, i32 1666} ; [ DW_TAG_subprogram ]
!1345 = metadata !{i32 786453, i32 0, metadata !"", i32 0, i32 0, i64 0, i64 0, i64 0, i32 0, null, metadata !1346, i32 0, i32 0} ; [ DW_TAG_subroutine_type ]
!1346 = metadata !{metadata !1331, metadata !1263, metadata !212}
!1347 = metadata !{i32 786478, i32 0, metadata !1247, metadata !"operator=", metadata !"operator=", metadata !"_ZN11ap_int_baseILi8ELb1ELb1EEaSEs", metadata !165, i32 1667, metadata !1348, i1 false, i1 false, i32 0, i32 0, null, i32 256, i1 false, null, null, i32 0, metadata !177, i32 1667} ; [ DW_TAG_subprogram ]
!1348 = metadata !{i32 786453, i32 0, metadata !"", i32 0, i32 0, i64 0, i64 0, i64 0, i32 0, null, metadata !1349, i32 0, i32 0} ; [ DW_TAG_subroutine_type ]
!1349 = metadata !{metadata !1331, metadata !1263, metadata !216}
!1350 = metadata !{i32 786478, i32 0, metadata !1247, metadata !"operator=", metadata !"operator=", metadata !"_ZN11ap_int_baseILi8ELb1ELb1EEaSEt", metadata !165, i32 1668, metadata !1351, i1 false, i1 false, i32 0, i32 0, null, i32 256, i1 false, null, null, i32 0, metadata !177, i32 1668} ; [ DW_TAG_subprogram ]
!1351 = metadata !{i32 786453, i32 0, metadata !"", i32 0, i32 0, i64 0, i64 0, i64 0, i32 0, null, metadata !1352, i32 0, i32 0} ; [ DW_TAG_subroutine_type ]
!1352 = metadata !{metadata !1331, metadata !1263, metadata !220}
!1353 = metadata !{i32 786478, i32 0, metadata !1247, metadata !"operator=", metadata !"operator=", metadata !"_ZN11ap_int_baseILi8ELb1ELb1EEaSEi", metadata !165, i32 1669, metadata !1354, i1 false, i1 false, i32 0, i32 0, null, i32 256, i1 false, null, null, i32 0, metadata !177, i32 1669} ; [ DW_TAG_subprogram ]
!1354 = metadata !{i32 786453, i32 0, metadata !"", i32 0, i32 0, i64 0, i64 0, i64 0, i32 0, null, metadata !1355, i32 0, i32 0} ; [ DW_TAG_subroutine_type ]
!1355 = metadata !{metadata !1331, metadata !1263, metadata !181}
!1356 = metadata !{i32 786478, i32 0, metadata !1247, metadata !"operator=", metadata !"operator=", metadata !"_ZN11ap_int_baseILi8ELb1ELb1EEaSEj", metadata !165, i32 1670, metadata !1357, i1 false, i1 false, i32 0, i32 0, null, i32 256, i1 false, null, null, i32 0, metadata !177, i32 1670} ; [ DW_TAG_subprogram ]
!1357 = metadata !{i32 786453, i32 0, metadata !"", i32 0, i32 0, i64 0, i64 0, i64 0, i32 0, null, metadata !1358, i32 0, i32 0} ; [ DW_TAG_subroutine_type ]
!1358 = metadata !{metadata !1331, metadata !1263, metadata !227}
!1359 = metadata !{i32 786478, i32 0, metadata !1247, metadata !"operator=", metadata !"operator=", metadata !"_ZN11ap_int_baseILi8ELb1ELb1EEaSEx", metadata !165, i32 1671, metadata !1360, i1 false, i1 false, i32 0, i32 0, null, i32 256, i1 false, null, null, i32 0, metadata !177, i32 1671} ; [ DW_TAG_subprogram ]
!1360 = metadata !{i32 786453, i32 0, metadata !"", i32 0, i32 0, i64 0, i64 0, i64 0, i32 0, null, metadata !1361, i32 0, i32 0} ; [ DW_TAG_subroutine_type ]
!1361 = metadata !{metadata !1331, metadata !1263, metadata !239}
!1362 = metadata !{i32 786478, i32 0, metadata !1247, metadata !"operator=", metadata !"operator=", metadata !"_ZN11ap_int_baseILi8ELb1ELb1EEaSEy", metadata !165, i32 1672, metadata !1363, i1 false, i1 false, i32 0, i32 0, null, i32 256, i1 false, null, null, i32 0, metadata !177, i32 1672} ; [ DW_TAG_subprogram ]
!1363 = metadata !{i32 786453, i32 0, metadata !"", i32 0, i32 0, i64 0, i64 0, i64 0, i32 0, null, metadata !1364, i32 0, i32 0} ; [ DW_TAG_subroutine_type ]
!1364 = metadata !{metadata !1331, metadata !1263, metadata !244}
!1365 = metadata !{i32 786478, i32 0, metadata !1247, metadata !"operator signed char", metadata !"operator signed char", metadata !"_ZNK11ap_int_baseILi8ELb1ELb1EEcvaEv", metadata !165, i32 1710, metadata !1366, i1 false, i1 false, i32 0, i32 0, null, i32 256, i1 false, null, null, i32 0, metadata !177, i32 1710} ; [ DW_TAG_subprogram ]
!1366 = metadata !{i32 786453, i32 0, metadata !"", i32 0, i32 0, i64 0, i64 0, i64 0, i32 0, null, metadata !1367, i32 0, i32 0} ; [ DW_TAG_subroutine_type ]
!1367 = metadata !{metadata !1368, metadata !1369}
!1368 = metadata !{i32 786454, metadata !1247, metadata !"RetType", metadata !165, i32 1458, i64 0, i64 0, i64 0, i32 0, metadata !952} ; [ DW_TAG_typedef ]
!1369 = metadata !{i32 786447, i32 0, metadata !"", i32 0, i32 0, i64 64, i64 64, i64 0, i32 64, metadata !1321} ; [ DW_TAG_pointer_type ]
!1370 = metadata !{i32 786478, i32 0, metadata !1247, metadata !"to_bool", metadata !"to_bool", metadata !"_ZNK11ap_int_baseILi8ELb1ELb1EE7to_boolEv", metadata !165, i32 1716, metadata !1371, i1 false, i1 false, i32 0, i32 0, null, i32 256, i1 false, null, null, i32 0, metadata !177, i32 1716} ; [ DW_TAG_subprogram ]
!1371 = metadata !{i32 786453, i32 0, metadata !"", i32 0, i32 0, i64 0, i64 0, i64 0, i32 0, null, metadata !1372, i32 0, i32 0} ; [ DW_TAG_subroutine_type ]
!1372 = metadata !{metadata !183, metadata !1369}
!1373 = metadata !{i32 786478, i32 0, metadata !1247, metadata !"to_uchar", metadata !"to_uchar", metadata !"_ZNK11ap_int_baseILi8ELb1ELb1EE8to_ucharEv", metadata !165, i32 1717, metadata !1374, i1 false, i1 false, i32 0, i32 0, null, i32 256, i1 false, null, null, i32 0, metadata !177, i32 1717} ; [ DW_TAG_subprogram ]
